00000000                            ; -------------------------------------------------------------------------------
00000000                            ; Sonic CD Misc. Disassembly
00000000                            ; By Ralakimus 2021
00000000                            ; -------------------------------------------------------------------------------
00000000                            ; System program extension
00000000                            ; -------------------------------------------------------------------------------
00000000                            
00000000                            	include	"_inc/macros.asm"
00000000                            ; -------------------------------------------------------------------------------
00000000                            ; Sonic CD Misc. Disassembly
00000000                            ; By Ralakimus 2021
00000000                            ; -------------------------------------------------------------------------------
00000000                            ; Common macros
00000000                            ; -------------------------------------------------------------------------------
00000000                            
00000000                            ; -------------------------------------------------------------------------
00000000                            ; Align
00000000                            ; -------------------------------------------------------------------------
00000000                            ; PARAMETERS:
00000000                            ;	bound	- Size boundary
00000000                            ; -------------------------------------------------------------------------
00000000                            
00000000                            align macros bound
00000000                            	cnop	0,\bound			; Align data
00000000                            
00000000                            ; -------------------------------------------------------------------------
00000000                            ; Push all registers to the stack
00000000                            ; -------------------------------------------------------------------------
00000000                            
00000000                            pusha macros
00000000                            	movem.l	d0-a6,-(sp)			; Push registers
00000000                            
00000000                            ; -------------------------------------------------------------------------
00000000                            ; Pop all registers from the stack
00000000                            ; -------------------------------------------------------------------------
00000000                            
00000000                            popa macros
00000000                            	movem.l	(sp)+,d0-a6			; Pop registers
00000000                            
00000000                            ; -------------------------------------------------------------------------
00000000                            ; Pad RS to even address
00000000                            ; -------------------------------------------------------------------------
00000000                            
00000000                            rsEven macros
00000000                            	rs.b	__rs&1				; Align RS
00000000                            
00000000                            ; -------------------------------------------------------------------------
00000000                            ; -------------------------------------------------------------------------
00000000                            	include	"_inc/subcpu.asm"
00000000                            ; -------------------------------------------------------------------------------
00000000                            ; Sonic CD Misc. Disassembly
00000000                            ; By Ralakimus 2021
00000000                            ; -------------------------------------------------------------------------------
00000000                            ; Sub CPU definitions
00000000                            ; -------------------------------------------------------------------------------
00000000                            
00000000                            ; -------------------------------------------------------------------------
00000000                            ; Memory map
00000000                            ; -------------------------------------------------------------------------
00000000                            
00000000 =00000000                  PRG_RAM		EQU	$00000			; PRG-RAM
00000000 =00080000                  WORDRAM_2M	EQU	$80000			; Word RAM in 2M mode	
00000000 =000C0000                  WORDRAM_1M	EQU	$C0000			; Word RAM in 1M mode
00000000                            
00000000 =00006000                  SP_START	EQU	PRG_RAM+$6000		; Start of SP program
00000000                            
00000000 =00040000                  WORDRAM_2M_LEN	EQU	$40000			; Size of Word RAM in 2M mode
00000000 =00020000                  WORDRAM_1M_LEN	EQU	$20000			; Size of Word RAM in 1M mode
00000000                            
00000000                            ; -------------------------------------------------------------------------
00000000                            ; Gate array
00000000                            ; -------------------------------------------------------------------------
00000000                            
00000000 =FFFF8000                  GA_BASE		EQU	$FFFF8000		; Gate array base
00000000 =FFFF0000                  PCM_BASE	EQU	$FFFF0000		; PCM chip base
00000000                            
00000000                            ; -------------------------------------------------------------------------
00000000                            
00000000 =00000000                  gaReset		EQU	$0000			; Peripheral reset
00000000 =00000002                  gaMemMode	EQU	$0002			; Memory mode/Write protection
00000000 =00000004                  gaCDCMode	EQU	$0004			; CDC mode/Device destination
00000000 =00000006                  gaCRS1		EQU	$0006			; CDC control register
00000000 =00000008                  gaCDCHost	EQU	$0008			; 16 bit CDC data to host
00000000 =0000000A                  gaDMAAddr	EQU	$000A			; DMA offset into destination area
00000000 =0000000C                  gaStopwatch	EQU	$000C			; CDC/gp timer 30.72us LSB
00000000 =0000000E                  gaComFlags	EQU	$000E			; Communication flags
00000000 =0000000E                  gaMainFlag	EQU	$000E			; Main CPU communication flag
00000000 =0000000F                  gaSubFlag	EQU	$000F			; Sub CPU communication flag
00000000 =00000010                  gaCmds		EQU	$0010			; Communication commands
00000000 =00000010                  gaCmd0		EQU	$0010			; Communication command 0
00000000 =00000011                  gaCmd1		EQU	$0011			; Communication command 1
00000000 =00000012                  gaCmd2		EQU	$0012			; Communication command 2
00000000 =00000013                  gaCmd3		EQU	$0013			; Communication command 3
00000000 =00000014                  gaCmd4		EQU	$0014			; Communication command 4
00000000 =00000015                  gaCmd5		EQU	$0015			; Communication command 5
00000000 =00000016                  gaCmd6		EQU	$0016			; Communication command 6
00000000 =00000017                  gaCmd7		EQU	$0017			; Communication command 7
00000000 =00000018                  gaCmd8		EQU	$0018			; Communication command 8
00000000 =00000019                  gaCmd9		EQU	$0019			; Communication command 9
00000000 =0000001A                  gaCmdA		EQU	$001A			; Communication command A
00000000 =0000001B                  gaCmdB		EQU	$001B			; Communication command B
00000000 =0000001C                  gaCmdC		EQU	$001C			; Communication command C
00000000 =0000001D                  gaCmdD		EQU	$001D			; Communication command D
00000000 =0000001E                  gaCmdE		EQU	$001E			; Communication command E
00000000 =0000001F                  gaCmdF		EQU	$001F			; Communication command F
00000000 =00000020                  gaStats		EQU	$0020			; Communication statuses
00000000 =00000020                  gaStat0		EQU	$0020			; Communication status 0
00000000 =00000021                  gaStat1		EQU	$0021			; Communication status 1
00000000 =00000022                  gaStat2		EQU	$0022			; Communication status 2
00000000 =00000023                  gaStat3		EQU	$0023			; Communication status 3
00000000 =00000024                  gaStat4		EQU	$0024			; Communication status 4
00000000 =00000025                  gaStat5		EQU	$0025			; Communication status 5
00000000 =00000026                  gaStat6		EQU	$0026			; Communication status 6
00000000 =00000027                  gaStat7		EQU	$0027			; Communication status 7
00000000 =00000028                  gaStat8		EQU	$0028			; Communication status 8
00000000 =00000029                  gaStat9		EQU	$0029			; Communication status 9
00000000 =0000002A                  gaStatA		EQU	$002A			; Communication status A
00000000 =0000002B                  gaStatB		EQU	$002B			; Communication status B
00000000 =0000002C                  gaStatC		EQU	$002C			; Communication status C
00000000 =0000002D                  gaStatD		EQU	$002D			; Communication status D
00000000 =0000002E                  gaStatE		EQU	$002E			; Communication status E
00000000 =0000002F                  gaStatF		EQU	$002F			; Communication status F
00000000 =00000030                  gaInt3Timer	EQU	$0030			; Interrupt 3 timer
00000000 =00000032                  gaIntMask	EQU	$0032			; Interrupt mask
00000000 =00000034                  gaCDFader	EQU	$0034			; Fader control/Spindle speed
00000000 =00000036                  gaCDDCtrl	EQU	$0036			; CDD control
00000000 =00000038                  gaCDDComm	EQU	$0038			; CDD communication
00000000 =0000004C                  gaFontCol	EQU	$004C			; Source color values
00000000 =0000004E                  gaFontBits	EQU	$004E			; Font data
00000000 =00000056                  gaFontData	EQU	$0056			; Read only
00000000 =00000058                  gaStampSz	EQU	$0058			; Stamp size/Map size
00000000 =0000005A                  gaStampMap	EQU	$005A			; Stamp map base address
00000000 =0000005C                  gaImgVCell	EQU	$005C			; Image buffer V size in cells
00000000 =0000005E                  gaImgStart	EQU	$005E			; Image buffer start address
00000000 =00000060                  gaImgOff	EQU	$0060			; Image buffer offset
00000000 =00000062                  gaImgHDot	EQU	$0062			; Image buffer H size in dots
00000000 =00000064                  gaImgVDot	EQU	$0064			; Image buffer V size in dots
00000000 =00000066                  gaTrace		EQU	$0066			; Trace vector base address
00000000 =00000068                  gaSubAddr	EQU	$0068			; Subcode top address
00000000 =00000100                  gaSubcode	EQU	$0100			; 64 word subcode buffer
00000000 =00000180                  gaSubImg	EQU	$0180			; Image of subcode buffer
00000000                            
00000000 =FFFF8000                  GA_RESET	EQU	GA_BASE+gaReset		; Peripheral reset
00000000 =FFFF8002                  GA_MEM_MODE	EQU	GA_BASE+gaMemMode	; Memory mode/Write protection
00000000 =FFFF8004                  GA_CDC_MODE	EQU	GA_BASE+gaCDCMode	; CDC mode/Device destination
00000000 =FFFF8006                  GA_CRS1		EQU	GA_BASE+gaCRS1		;  CDC control register
00000000 =FFFF8008                  GA_CDC_HOST	EQU	GA_BASE+gaCDCHost	; 16 bit CDC data to host
00000000 =FFFF800A                  GA_DMA_ADDR	EQU	GA_BASE+gaDMAAddr	; DMA offset into destination area
00000000 =FFFF800C                  GA_STOPWATCH	EQU	GA_BASE+gaStopwatch	; CDC/gp timer 30.72us LSB
00000000                            GA_COM_FLAGS	EQU	GA_BASE+gaFlags		; Communication flags
00000000 =FFFF800E                  GA_MAIN_FLAG	EQU	GA_BASE+gaMainFlag	; Main CPU communication flag
00000000 =FFFF800F                  GA_SUB_FLAG	EQU	GA_BASE+gaSubFlag	; Sub CPU communication flag
00000000 =FFFF8010                  GA_CMDS		EQU	GA_BASE+gaCmds		; Communication commands
00000000 =FFFF8010                  GA_CMD_0	EQU	GA_BASE+gaCmd0		; Communication command 0
00000000 =FFFF8011                  GA_CMD_1	EQU	GA_BASE+gaCmd1		; Communication command 1
00000000 =FFFF8012                  GA_CMD_2	EQU	GA_BASE+gaCmd2		; Communication command 2
00000000 =FFFF8013                  GA_CMD_3	EQU	GA_BASE+gaCmd3		; Communication command 3
00000000 =FFFF8014                  GA_CMD_4	EQU	GA_BASE+gaCmd4		; Communication command 4
00000000 =FFFF8015                  GA_CMD_5	EQU	GA_BASE+gaCmd5		; Communication command 5
00000000 =FFFF8016                  GA_CMD_6	EQU	GA_BASE+gaCmd6		; Communication command 6
00000000 =FFFF8017                  GA_CMD_7	EQU	GA_BASE+gaCmd7		; Communication command 7
00000000 =FFFF8018                  GA_CMD_8	EQU	GA_BASE+gaCmd8		; Communication command 8
00000000 =FFFF8019                  GA_CMD_9	EQU	GA_BASE+gaCmd9		; Communication command 9
00000000 =FFFF801A                  GA_CMD_A	EQU	GA_BASE+gaCmdA		; Communication command A
00000000 =FFFF801B                  GA_CMD_B	EQU	GA_BASE+gaCmdB		; Communication command B
00000000 =FFFF801C                  GA_CMD_C	EQU	GA_BASE+gaCmdC		; Communication command C
00000000 =FFFF801D                  GA_CMD_D	EQU	GA_BASE+gaCmdD		; Communication command D
00000000 =FFFF801E                  GA_CMD_E	EQU	GA_BASE+gaCmdE		; Communication command E
00000000 =FFFF801F                  GA_CMD_F	EQU	GA_BASE+gaCmdF		; Communication command F
00000000 =FFFF8020                  GA_STATS	EQU	GA_BASE+gaStats		; Communication statuses
00000000 =FFFF8020                  GA_STAT_0	EQU	GA_BASE+gaStat0		; Communication status 0
00000000 =FFFF8021                  GA_STAT_1	EQU	GA_BASE+gaStat1		; Communication status 1
00000000 =FFFF8022                  GA_STAT_2	EQU	GA_BASE+gaStat2		; Communication status 2
00000000 =FFFF8023                  GA_STAT_3	EQU	GA_BASE+gaStat3		; Communication status 3
00000000 =FFFF8024                  GA_STAT_4	EQU	GA_BASE+gaStat4		; Communication status 4
00000000 =FFFF8025                  GA_STAT_5	EQU	GA_BASE+gaStat5		; Communication status 5
00000000 =FFFF8026                  GA_STAT_6	EQU	GA_BASE+gaStat6		; Communication status 6
00000000 =FFFF8027                  GA_STAT_7	EQU	GA_BASE+gaStat7		; Communication status 7
00000000 =FFFF8028                  GA_STAT_8	EQU	GA_BASE+gaStat8		; Communication status 8
00000000 =FFFF8029                  GA_STAT_9	EQU	GA_BASE+gaStat9		; Communication status 9
00000000 =FFFF802A                  GA_STAT_A	EQU	GA_BASE+gaStatA		; Communication status A
00000000 =FFFF802B                  GA_STAT_B	EQU	GA_BASE+gaStatB		; Communication status B
00000000 =FFFF802C                  GA_STAT_C	EQU	GA_BASE+gaStatC		; Communication status C
00000000 =FFFF802D                  GA_STAT_D	EQU	GA_BASE+gaStatD		; Communication status D
00000000 =FFFF802E                  GA_STAT_E	EQU	GA_BASE+gaStatE		; Communication status E
00000000 =FFFF802F                  GA_STAT_F	EQU	GA_BASE+gaStatF		; Communication status F
00000000 =FFFF8030                  GA_INT3_TIMER	EQU	GA_BASE+gaInt3Timer	; Interrupt 3 timer
00000000 =FFFF8032                  GA_INT_MASK	EQU	GA_BASE+gaIntMask	; Interrupt mask
00000000 =FFFF8034                  GA_CD_FADER	EQU	GA_BASE+gaCDFader	; Fader control/Spindle speed
00000000 =FFFF8036                  GA_CDD_CTRL	EQU	GA_BASE+gaCDDCtrl	; CDD control
00000000 =FFFF8038                  GA_CDD_COMM	EQU	GA_BASE+gaCDDComm	; CDD communication
00000000 =FFFF804C                  GA_FONT_COLOR	EQU	GA_BASE+gaFontCol	; Source color values
00000000 =FFFF804E                  GA_FONT_BITS	EQU	GA_BASE+gaFontBits	; Font data
00000000 =FFFF8056                  GA_FONT_DATA	EQU	GA_BASE+gaFontData	; Read only
00000000 =FFFF8058                  GA_STAMP_SIZE	EQU	GA_BASE+gaStampSz	; Stamp size/Map size
00000000 =FFFF805A                  GA_STAMP_MAP	EQU	GA_BASE+gaStampMap	; Stamp map base address
00000000 =FFFF805C                  GA_IMG_VCELL	EQU	GA_BASE+gaImgVCell	; Image buffer V size in cells
00000000 =FFFF805E                  GA_IMG_START	EQU	GA_BASE+gaImgStart	; Image buffer start address
00000000 =FFFF8060                  GA_IMG_OFFSET	EQU	GA_BASE+gaImgOff	; Image buffer offset
00000000 =FFFF8062                  GA_IMG_HDOT	EQU	GA_BASE+gaImgHDot	; Image buffer H size in dots
00000000 =FFFF8064                  GA_IMG_VDOT	EQU	GA_BASE+gaImgVDot	; Image buffer V size in dots
00000000 =FFFF8066                  GA_IMG_TRACE	EQU	GA_BASE+gaTrace		; Trace vector base address
00000000 =FFFF8068                  GA_SUBCODE_ADDR	EQU	GA_BASE+gaSubAddr	; Subcode top address
00000000 =FFFF8100                  GA_SUBCODE	EQU	GA_BASE+gaSubcode	; 64 word subcode buffer
00000000 =FFFF8180                  GA_SUBCODE_IMG	EQU	GA_BASE+gaSubImg	; Image of subcode buffer
00000000                            
00000000                            ; -------------------------------------------------------------------------
00000000                            ; PCM chip registers
00000000                            ; -------------------------------------------------------------------------
00000000                            
00000000 =00000001                  pcmEnv		EQU	$0000*2+1		; Volume
00000000 =00000003                  pcmPan		EQU	$0001*2+1		; Pan
00000000 =00000005                  pcmFDL		EQU	$0002*2+1		; Frequency (low)
00000000 =00000007                  pcmFDH		EQU	$0003*2+1		; Frequency (high)
00000000 =00000009                  pcmLSL		EQU	$0004*2+1		; Wave memory stop address (high)
00000000 =0000000B                  pcmLSH		EQU	$0005*2+1		; Wave memory stop address (low)
00000000 =0000000D                  pcmST		EQU	$0006*2+1		; Start of wave memory
00000000 =0000000F                  pcmCtrl		EQU	$0007*2+1		; Control
00000000 =00000011                  pcmOnOff	EQU	$0008*2+1		; On/Off
00000000 =00000021                  pcmWaveAddr	EQU	$0010*2+1		; Wave address
00000000 =00002001                  pcmWaveData	EQU	$1000*2+1		; Wave data
00000000                            
00000000                            ; -------------------------------------------------------------------------
00000000                            
00000000 =FFFF0001                  PCM_ENV		EQU	PCM_BASE+pcmEnv		; Volume
00000000 =FFFF0003                  PCM_PAN		EQU	PCM_BASE+pcmPan		; Pan
00000000 =FFFF0005                  PCM_FDL		EQU	PCM_BASE+pcmFDL		; Frequency (low)
00000000 =FFFF0007                  PCM_FDH		EQU	PCM_BASE+pcmFDH		; Frequency (high)
00000000 =FFFF0009                  PCM_LSL		EQU	PCM_BASE+pcmLSL		; Wave memory stop address (high)
00000000 =FFFF000B                  PCM_LSH		EQU	PCM_BASE+pcmLSH		; Wave memory stop address (low)
00000000 =FFFF000D                  PCM_ST		EQU	PCM_BASE+pcmST		; Start of wave memory
00000000 =FFFF000F                  PCM_CTRL	EQU	PCM_BASE+pcmCtrl	; Control
00000000 =FFFF0011                  PCM_ON_OFF	EQU	PCM_BASE+pcmOnOff	; On/Off
00000000 =FFFF0021                  PCM_WAVE_ADDR	EQU	PCM_BASE+pcmWaveAddr	; Wave address
00000000 =FFFF2001                  PCM_WAVE_DATA	EQU	PCM_BASE+pcmWaveData	; Wave data
00000000                            
00000000                            ; -------------------------------------------------------------------------
00000000                            ; BIOS function codes
00000000                            ; -------------------------------------------------------------------------
00000000                            
00000000 =00000002                  MSCSTOP		EQU	$0002
00000000 =00000003                  MSCPAUSEON	EQU	$0003
00000000 =00000004                  MSCPAUSEOFF	EQU	$0004
00000000 =00000005                  MSCSCANFF	EQU	$0005
00000000 =00000006                  MSCSCANFR	EQU	$0006
00000000 =00000007                  MSCSCANOFF	EQU	$0007
00000000                            
00000000 =00000008                  ROMPAUSEON	EQU	$0008
00000000 =00000009                  ROMPAUSEOFF	EQU	$0009
00000000                            
00000000 =0000000A                  DRVOPEN		EQU	$000A
00000000 =00000010                  DRVINIT		EQU	$0010
00000000                            
00000000 =00000011                  MSCPLAY		EQU	$0011
00000000 =00000012                  MSCPLAY1	EQU	$0012
00000000 =00000013                  MSCPLAYR	EQU	$0013
00000000 =00000014                  MSCPLAYT	EQU	$0014
00000000 =00000015                  MSCSEEK		EQU	$0015
00000000 =00000016                  MSCSEEKT	EQU	$0016
00000000                            
00000000 =00000017                  ROMREAD		EQU	$0017
00000000 =00000018                  ROMSEEK		EQU	$0018
00000000                            
00000000 =00000019                  MSCSEEK1	EQU	$0019
00000000 =0000001E                  TESTENTRY	EQU	$001E
00000000 =0000001F                  TESTENTRYLOOP	EQU	$001F
00000000                            
00000000 =00000020                  ROMREADN	EQU	$0020
00000000 =00000021                  ROMREADE	EQU	$0021
00000000                            
00000000 =00000080                  CDBCHK		EQU	$0080
00000000 =00000081                  CDBSTAT		EQU	$0081
00000000 =00000082                  CDBTOCWRITE	EQU	$0082
00000000 =00000083                  CDBTOCREAD	EQU	$0083
00000000 =00000084                  CDBPAUSE	EQU	$0084
00000000                            
00000000 =00000085                  FDRSET		EQU	$0085
00000000 =00000086                  FDRCHG		EQU	$0086
00000000                            
00000000 =00000087                  CDCSTART	EQU	$0087
00000000 =00000088                  CDCSTARTP	EQU	$0088
00000000 =00000089                  CDCSTOP		EQU	$0089
00000000 =0000008A                  CDCSTAT		EQU	$008A
00000000 =0000008B                  CDCREAD		EQU	$008B
00000000 =0000008C                  CDCTRN		EQU	$008C
00000000 =0000008D                  CDCACK		EQU	$008D
00000000                            
00000000 =0000008E                  SCDINIT		EQU	$008E
00000000 =0000008F                  SCDSTART	EQU	$008F
00000000 =00000090                  SCDSTOP		EQU	$0090
00000000 =00000091                  SCDSTAT		EQU	$0091
00000000 =00000092                  SCDREAD		EQU	$0092
00000000 =00000093                  SCDPQ		EQU	$0093
00000000 =00000094                  SCDPQL		EQU	$0094
00000000                            
00000000 =00000095                  LEDSET		EQU	$0095
00000000                            
00000000 =00000096                  CDCSETMODE	EQU	$0096
00000000                            
00000000 =00000097                  WONDERREQ	EQU	$0097
00000000 =00000098                  WONDERCHK	EQU	$0098
00000000                            
00000000 =00000000                  CBTINIT		EQU	$0000
00000000 =00000001                  CBTINT		EQU	$0001
00000000 =00000002                  CBTOPENDISC	EQU	$0002
00000000 =00000003                  CBTOPENSTAT	EQU	$0003
00000000 =00000004                  CBTCHKDISC	EQU	$0004
00000000 =00000005                  CBTCHKSTAT	EQU	$0005
00000000 =00000006                  CBTIPDISC	EQU	$0006
00000000 =00000007                  CBTIPSTAT	EQU	$0007
00000000 =00000008                  CBTSPDISC	EQU	$0008
00000000 =00000009                  CBTSPSTAT	EQU	$0009
00000000                            
00000000 =00000000                  BRMINIT		EQU	$0000
00000000 =00000001                  BRMSTAT		EQU	$0001
00000000 =00000002                  BRMSERCH	EQU	$0002
00000000 =00000003                  BRMREAD		EQU	$0003
00000000 =00000004                  BRMWRITE	EQU	$0004
00000000 =00000005                  BRMDEL		EQU	$0005
00000000 =00000006                  BRMFORMAT	EQU	$0006
00000000 =00000007                  BRMDIR		EQU	$0007
00000000 =00000008                  BRMVERIFY	EQU	$0008
00000000                            
00000000                            ; -------------------------------------------------------------------------
00000000                            ; BIOS entry points
00000000                            ; -------------------------------------------------------------------------
00000000                            
00000000 =00005F40                  _ADRERR		EQU	$00005F40
00000000 =00005EA0                  _BOOTSTAT	EQU	$00005EA0
00000000 =00005F16                  _BURAM		EQU	$00005F16
00000000 =00005F22                  _CDBIOS		EQU	$00005F22
00000000 =00005F1C                  _CDBOOT		EQU	$00005F1C
00000000 =00005E80                  _CDSTAT		EQU	$00005E80
00000000 =00005F52                  _CHKERR		EQU	$00005F52
00000000 =00005F46                  _CODERR		EQU	$00005F46
00000000 =00005F4C                  _DEVERR		EQU	$00005F4C
00000000 =00005F76                  _LEVEL1		EQU	$00005F76
00000000 =00005F7C                  _LEVEL2		EQU	$00005F7C
00000000 =00005F82                  _LEVEL3		EQU	$00005F82
00000000 =00005F88                  _LEVEL4		EQU	$00005F88
00000000 =00005F8E                  _LEVEL5		EQU	$00005F8E
00000000 =00005F94                  _LEVEL6		EQU	$00005F94
00000000 =00005F9A                  _LEVEL7		EQU	$00005F9A
00000000 =00005F6A                  _NOCOD0		EQU	$00005F6A
00000000 =00005F70                  _NOCOD1		EQU	$00005F70
00000000 =00005F0A                  _SETJMPTBL	EQU	$00005F0A
00000000 =00005F5E                  _SPVERR		EQU	$00005F5E
00000000 =00005F64                  _TRACE		EQU	$00005F64
00000000 =00005FA0                  _TRAP00		EQU	$00005FA0
00000000 =00005FA6                  _TRAP01		EQU	$00005FA6
00000000 =00005FAC                  _TRAP02		EQU	$00005FAC
00000000 =00005FB2                  _TRAP03		EQU	$00005FB2
00000000 =00005FB8                  _TRAP04		EQU	$00005FB8
00000000 =00005FBE                  _TRAP05		EQU	$00005FBE
00000000 =00005FC4                  _TRAP06		EQU	$00005FC4
00000000 =00005FCA                  _TRAP07		EQU	$00005FCA
00000000 =00005FD0                  _TRAP08		EQU	$00005FD0
00000000 =00005FD6                  _TRAP09		EQU	$00005FD6
00000000 =00005FDC                  _TRAP10		EQU	$00005FDC
00000000 =00005FE2                  _TRAP11		EQU	$00005FE2
00000000 =00005FE8                  _TRAP12		EQU	$00005FE8
00000000 =00005FEE                  _TRAP13		EQU	$00005FEE
00000000 =00005FF4                  _TRAP14		EQU	$00005FF4
00000000 =00005FFA                  _TRAP15		EQU	$00005FFA
00000000 =00005F58                  _TRPERR		EQU	$00005F58
00000000 =00005F28                  _USERCALL0	EQU	$00005F28
00000000 =00005F2E                  _USERCALL1	EQU	$00005F2E
00000000 =00005F34                  _USERCALL2	EQU	$00005F34
00000000 =00005F3A                  _USERCALL3	EQU	$00005F3A
00000000 =00005EA6                  _USERMODE	EQU	$00005EA6
00000000 =00005F10                  _WAITVSYNC	EQU	$00005F10
00000000                            
00000000                            ; -------------------------------------------------------------------------
00000000                            ; -------------------------------------------------------------------------
00000000                            	include	"_inc/system.asm"
00000000                            ; -------------------------------------------------------------------------------
00000000                            ; Sonic CD Misc. Disassembly
00000000                            ; By Ralakimus 2021
00000000                            ; -------------------------------------------------------------------------------
00000000                            ; System definitions
00000000                            ; -------------------------------------------------------------------------------
00000000                            
00000000                            ; -------------------------------------------------------------------------------
00000000                            ; Constants
00000000                            ; -------------------------------------------------------------------------------
00000000                            
00000000                            ; Addresses
00000000 =00007000                  SPVariables	EQU	$7000			; Variables
00000000 =00007400                  SaveDataTemp	EQU	$7400			; Temporary save data buffer
00000000 =00007700                  SPIRQ2		EQU	$7700			; IRQ2 handler
00000000 =00007800                  LoadFile	EQU	$7800			; Load file
00000000 =00007840                  GetFileName	EQU	$7840			; Get file name
00000000 =00007880                  FileEngineFunc	EQU	$7880			; File engine function handler
00000000 =00008C00                  FileEngineVars	EQU	$8C00			; File engine variables
00000000 =0000B800                  SPX		EQU	$B800			; SPX start location
00000000 =0000B800                  SPXFileTable	EQU	SPX			; SPX file table
00000000 =0000C000                  SPXStart	EQU	SPX+$800		; SPX code start
00000000 =00010000                  Stack		EQU	$10000			; Stack base
00000000 =00040000                  PCMDriver	EQU	PRG_RAM+$40000		; PCM driver location
00000000 =00040010                  PCMDrv_Run	EQU	PCMDriver+$10		; Run PCM driver
00000000 =00040022                  PCMDrv_Queue	EQU	PCMDriver+$22		; PCM sound queue
00000000                            
00000000                            ; File engine functions
00000000 =00000000                  FFUNC_INIT	EQU	0			; Initialize
00000000 =00000001                  FFUNC_OPER	EQU	1			; Perform operation
00000000 =00000002                  FFUNC_STATUS	EQU	2			; Get status
00000000 =00000003                  FFUNC_GETFILES	EQU	3			; Get files
00000000 =00000004                  FFUNC_LOADFILE	EQU	4			; Load file
00000000 =00000005                  FFUNC_FINDFILE	EQU	5			; Find file
00000000 =00000006                  FFUNC_LOADFMV	EQU	6			; Load FMV
00000000 =00000007                  FFUNC_RESET	EQU	7			; Reset
00000000 =00000008                  FFUNC_LOADFMVM	EQU	8			; Load FMV (mute)
00000000                            
00000000                            ; File engine operation modes
00000000 =00000000                  FMODE_NONE	EQU	0			; No function
00000000 =00000001                  FMODE_GETFILES	EQU	1			; Get files
00000000 =00000002                  FMODE_LOADFILE	EQU	2			; Load file
00000000 =00000003                  FMODE_LOADFMV	EQU	3			; Load FMV
00000000 =00000004                  FMODE_LOADFMVM	EQU	4			; Load FMV (mute)
00000000                            
00000000                            ; File engine statuses
00000000 =00000064                  FSTAT_OK	EQU	100			; OK
00000000 =FFFFFFFF                  FSTAT_GETFAIL	EQU	-1			; File get failed
00000000 =FFFFFFFE                  FSTAT_NOTFOUND	EQU	-2			; File not found
00000000 =FFFFFFFD                  FSTAT_LOADFAIL	EQU	-3			; File load failed
00000000 =FFFFFF9C                  FSTAT_READFAIL	EQU	-100			; Failed
00000000 =FFFFFF91                  FSTAT_FMVFAIL	EQU	-111			; FMV load failed
00000000                            
00000000                            ; FMV data types
00000000 =00000000                  FMVT_PCM	EQU	0			; PCM data type
00000000 =00000001                  FMVT_GFX	EQU	1			; Graphics data type
00000000                            
00000000                            ; FMV flags
00000000 =00000003                  FMVF_INIT	EQU	3			; Initialized flag
00000000 =00000004                  FMVF_BANK	EQU	4			; PCM bank ID
00000000 =00000005                  FMVF_READY	EQU	5			; Ready flag
00000000 =00000007                  FMVF_SECT	EQU	7			; Reading data section 1 flag
00000000                            
00000000                            ; FMV addreses
00000000 =00040000                  FMV_PCM_BUF	EQU	PRG_RAM+$40000		; PCM data buffer
00000000 =000C0000                  FMV_GFX_BUF	EQU	WORDRAM_1M		; Graphics data buffer
00000000                            
00000000                            ; File data
00000000 =0000000C                  FILENAME_LEN	EQU	12			; File name length
00000000                            
00000000                            ; -------------------------------------------------------------------------------
00000000                            ; SP variables
00000000                            ; -------------------------------------------------------------------------------
00000000                            
00000000                            	rsset	SPVariables
00000000 =00007000                  curPCMDriver	rs.l	1			; Current PCM driver
00000000 =00007004                  ssFlags		rs.b	1			; Special stage flags
00000000 =00007005                  pcmDrvFlags	rs.b	1			; PCM driver flags
00000000                            		rs.b	$400-__rs
00000000 =00000400                  SP_VARS_LEN	rs.b	1			; Size of structure
00000000                            
00000000                            ; -------------------------------------------------------------------------------
00000000                            ; File engine variables structure
00000000                            ; -------------------------------------------------------------------------------
00000000                            
00000000                            	rsreset
00000000 =00000000                  feOperMark	rs.l	1			; Operation bookmark
00000000 =00000004                  feSector	rs.l	1			; Sector to read from
00000000 =00000008                  feSectorCnt	rs.l	1			; Number of sectors to read
00000000 =0000000C                  feReturnAddr	rs.l	1			; Return address for CD read functions
00000000 =00000010                  feReadBuffer	rs.l	1			; Read buffer address
00000000 =00000014                  feReadTime	rs.b	0			; Time of read sector
00000000 =00000014                  feReadMin	rs.b	1			; Read sector minute
00000000 =00000015                  feReadSec	rs.b	1			; Read sector second
00000000 =00000016                  feReadFrame	rs.b	1			; Read sector frame
00000000                            		rs.b	1
00000000 =00000018                  feDirSectors	rs.b	0			; Directory size in sectors
00000000 =00000018                  feFileSize	rs.l	1			; File size buffer
00000000 =0000001C                  feOperMode	rs.w	1			; Operation mode
00000000 =0000001E                  feStatus	rs.w	1			; Status code
00000000 =00000020                  feFileCount	rs.w	1			; File count
00000000 =00000022                  feWaitTime	rs.w	1			; Wait timer
00000000 =00000024                  feRetries	rs.w	1			; Retry counter
00000000 =00000026                  feSectorsRead	rs.w	1			; Number of sectors read
00000000 =00000028                  feCDC		rs.b	1			; CDC mode
00000000 =00000029                  feSectorFrame	rs.b	1			; Sector frame
00000000 =0000002A                  feFileName	rs.b	FILENAME_LEN		; File name buffer
00000000                            		rs.b	$100-__rs
00000000 =00000100                  feFileList	rs.b	$2000			; File list
00000000 =00002100                  feDirReadBuf	rs.b	$900			; Directory read buffer
00000000 =00002A00                  feFMVSectFrame	rs.w	1			; FMV sector frame
00000000 =00002A02                  feFMVDataType	rs.b	1			; FMV read data type
00000000 =00002A03                  feFMVFlags	rs.b	1			; FMV flags
00000000 =00002A04                  feFMVFailCount	rs.b	1			; FMV fail counter
00000000 =00002A05                  FILE_VARS_LEN	rs.b	0			; Size of structure
00000000                            
00000000                            ; -------------------------------------------------------------------------------
00000000                            ; File entry structure
00000000                            ; -------------------------------------------------------------------------------
00000000                            
00000000                            	rsreset
00000000 =00000000                  fileName	rs.b	FILENAME_LEN		; File name
00000000                            		rs.b	$17-__rs
00000000 =00000017                  fileFlags	rs.b	1			; File flags
00000000 =00000018                  fileSector	rs.l	1			; File sector
00000000 =0000001C                  fileLength	rs.l	1			; File size
00000000 =00000020                  FILE_ENTRY_LEN	rs.b	0			; Size of structure
00000000                            
00000000                            ; -------------------------------------------------------------------------------
00000000                            ; -------------------------------------------------------------------------------
00000000                            	include	"_inc/sound.asm"
00000000                            ; -------------------------------------------------------------------------------
00000000                            ; Sonic CD Misc. Disassembly
00000000                            ; By Ralakimus 2021
00000000                            ; -------------------------------------------------------------------------------
00000000                            ; Sound definitions
00000000                            ; -------------------------------------------------------------------------------
00000000                            
00000000                            ; CDDA
00000000                            	rsset	2
00000000 =00000002                  CDDA_WARP	rs.b	1			; Prototype warp
00000000 =00000003                  CDDA_R1A	rs.b	1			; Palmtree Panic present
00000000 =00000004                  CDDA_R1C	rs.b	1			; Palmtree Panic good future
00000000 =00000005                  CDDA_R1D	rs.b	1			; Palmtree Panic bad future
00000000 =00000006                  CDDA_R3A	rs.b	1			; Collision Chaos present
00000000 =00000007                  CDDA_R3C	rs.b	1			; Collision Chaos good future
00000000 =00000008                  CDDA_R3D	rs.b	1			; Collision Chaos bad future
00000000 =00000009                  CDDA_R4A	rs.b	1			; Tidal Tempest present
00000000 =0000000A                  CDDA_R4C	rs.b	1			; Tidal Tempest good future
00000000 =0000000B                  CDDA_R4D	rs.b	1			; Tidal Tempest bad future
00000000 =0000000C                  CDDA_R5A	rs.b	1			; Quartz Quadrant present
00000000 =0000000D                  CDDA_R5C	rs.b	1			; Quartz Quadrant good future
00000000 =0000000E                  CDDA_R5D	rs.b	1			; Quartz Quadrant bad future
00000000 =0000000F                  CDDA_R6A	rs.b	1			; Wacky Workbench present
00000000 =00000010                  CDDA_R6C	rs.b	1			; Wacky Workbench good future
00000000 =00000011                  CDDA_R6D	rs.b	1			; Wacky Workbench bad future
00000000 =00000012                  CDDA_R7A	rs.b	1			; Stardust Speedway present
00000000 =00000013                  CDDA_R7C	rs.b	1			; Stardust Speedway good future
00000000 =00000014                  CDDA_R7D	rs.b	1			; Stardust Speedway bad future
00000000 =00000015                  CDDA_R8A	rs.b	1			; Metallic Madness present
00000000 =00000016                  CDDA_R8C	rs.b	1			; Metallic Madness good future
00000000 =00000017                  CDDA_R8D	rs.b	1			; Metallic Madness bad future
00000000 =00000018                  CDDA_BOSS	rs.b	1			; Boss
00000000 =00000019                  CDDA_FINAL	rs.b	1			; Final boss
00000000 =0000001A                  CDDA_TITLE	rs.b	1			; Title screen
00000000 =0000001B                  CDDA_TMATK	rs.b	1			; Time attack menu
00000000 =0000001C                  CDDA_LVLEND	rs.b	1			; Level end
00000000 =0000001D                  CDDA_SHOES	rs.b	1			; Speed shoes
00000000 =0000001E                  CDDA_INVINC	rs.b	1			; Invincibility
00000000 =0000001F                  CDDA_GAMEOVER	rs.b	1			; Game over
00000000 =00000020                  CDDA_SPECIAL	rs.b	1			; Special stage
00000000 =00000021                  CDDA_DAGARDEN	rs.b	1			; D.A. Garden
00000000 =00000022                  CDDA_INTRO	rs.b	1			; Opening
00000000 =00000023                  CDDA_ENDING	rs.b	1			; Ending
00000000                            
00000000                            ; PCM music
00000000                            	rsset	$81
00000000 =00000081                  PCMM_PAST	rs.b	1			; Past music
00000000                            
00000000                            ; PCM sound effects
00000000                            	rsset	$B1
00000000 =000000B1                  PCMS_FUTURE	rs.b	1			; "Future"
00000000 =000000B2                  PCMS_PAST	rs.b	1			; "Past"
00000000 =000000B3                  PCMS_ALRIGHT	rs.b	1			; "Alright"
00000000 =000000B4                  PCMS_GIVEUP	rs.b	1			; "I'm outta here"
00000000 =000000B5                  PCMS_YES	rs.b	1			; "Yes"
00000000 =000000B6                  PCMS_YEAH	rs.b	1			; "Yeah"
00000000 =000000B7                  PCMS_GIGGLE	rs.b	1			; Amy giggle
00000000 =000000B8                  PCMS_AMYYELP	rs.b	1			; Amy yelp
00000000 =000000B9                  PCMS_STOMP	rs.b	1			; Boss stomp
00000000 =000000BA                  PCMS_BUMPER	rs.b	1			; Bumper
00000000 =000000BB                  PCMS_BREAK	rs.b	1			; Glass breeak
00000000                            
00000000                            ; PCM commands
00000000                            	rsset	$E0
00000000 =000000E0                  PCMC_FADEOUT	rs.b	1			; Fade out
00000000 =000000E1                  PCMC_STOP	rs.b	1			; Stop
00000000 =000000E2                  PCMC_PAUSE	rs.b	1			; Pause
00000000 =000000E3                  PCMC_UNPAUSE	rs.b	1			; Unpause
00000000 =000000E4                  PCMC_MUTE	rs.b	1			; Mute
00000000                            
00000000                            ; -------------------------------------------------------------------------------
00000000                            ; -------------------------------------------------------------------------------
00000000                            	include	"_inc/buram.asm"
00000000                            ; -------------------------------------------------------------------------------
00000000                            ; Sonic CD Misc. Disassembly
00000000                            ; By Ralakimus 2021
00000000                            ; -------------------------------------------------------------------------------
00000000                            ; Shared Backup RAM management variables
00000000                            ; -------------------------------------------------------------------------------
00000000                            
00000000                            ; -------------------------------------------------------------------------------
00000000                            ; Backup RAM data
00000000                            ; -------------------------------------------------------------------------------
00000000                            
00000000                            	rsreset
00000000                            		rs.b	$2A0
00000000                            		rs.b	$20
00000000 =000002C0                  BURAM_DATA_LEN	rs.b	0			; Size of structure
00000000                            
00000000                            ; -------------------------------------------------------------------------------
00000000                            ; Backup RAM function parameters
00000000                            ; -------------------------------------------------------------------------------
00000000                            
00000000                            	rsreset
00000000 =00000000                  buramFile	rs.b	$B			; File name
00000000 =0000000B                  buramMisc	rs.b	0			; Misc. parameters start
00000000 =0000000B                  buramFlag	rs.b	1			; Flag
00000000 =0000000C                  buramBlkSz	rs.w	1			; Block size
00000000 =0000000E                  BURAM_PARAM_LEN	rs.b	0			; Size of structure
00000000                            
00000000                            ; -------------------------------------------------------------------------------
00000000                            ; Shared Word RAM variables
00000000                            ; -------------------------------------------------------------------------------
00000000                            
00000000                            	rsset	WORDRAM_2M+$20
00000000 =00080020                  commandID	rs.b	1			; Command ID
00000000 =00080021                  cmdStatus	rs.b	1			; Command status
00000000 =00080022                  buramD0		rs.w	1			; Backup RAM function returned d0
00000000 =00080024                  buramD1		rs.w	1			; Backup RAM function returned d1
00000000 =00080026                  useRAMCart	rs.b	1			; Use RAM cart flag
00000000 =00080027                  ramCartFound	rs.b	1			; RAM cart found flag
00000000 =00080028                  buramDisabled	rs.b	1			; Backup RAM disabled flag
00000000 =00080029                  writeFlag	rs.b	1			; Backup RAM function write flag
00000000 =0008002A                  blockSize	rs.w	1			; Backup RAM function block size
00000000                            		rs.b	4
00000000 =00080030                  buramParams	rs.b	BURAM_PARAM_LEN		; Backup RAM function parameters
00000000                            		rs.b	2
00000000 =00080040                  buramData	rs.b	BURAM_DATA_LEN		; Backup RAM data
00000000                            
00000000                            ; -------------------------------------------------------------------------------
00000000                            ; -------------------------------------------------------------------------------
00000000                            
00000000                            ; -------------------------------------------------------------------------------
00000000                            ; Files
00000000                            ; -------------------------------------------------------------------------------
00000000                            
00000000                            	org	SPX
0000B800                            File_R11A:
0000B800 5231 3141 5F5F 2E4D 4D44+  	dc.b	"R11A__.MMD;1", 0		; Palmtree Panic Act 1 present
0000B80D                            File_R11B:
0000B80D 5231 3142 5F5F 2E4D 4D44+  	dc.b	"R11B__.MMD;1", 0		; Palmtree Panic Act 1 past
0000B81A                            File_R11C:
0000B81A 5231 3143 5F5F 2E4D 4D44+  	dc.b	"R11C__.MMD;1", 0		; Palmtree Panic Act 1 good future
0000B827                            File_R11D:
0000B827 5231 3144 5F5F 2E4D 4D44+  	dc.b	"R11D__.MMD;1", 0		; Palmtree Panic Act 1 bad future
0000B834                            File_MDInit:
0000B834 4D44 494E 4954 2E4D 4D44+  	dc.b	"MDINIT.MMD;1", 0		; Mega Drive initialization
0000B841                            File_SoundTest:
0000B841 534F 5345 4C5F 2E4D 4D44+  	dc.b	"SOSEL_.MMD;1", 0		; Sound test
0000B84E                            File_StageSelect:
0000B84E 5354 5345 4C5F 2E4D 4D44+  	dc.b	"STSEL_.MMD;1", 0		; Stage select
0000B85B                            File_R12A:
0000B85B 5231 3241 5F5F 2E4D 4D44+  	dc.b	"R12A__.MMD;1", 0		; Palmtree Panic Act 2 present
0000B868                            File_R12B:
0000B868 5231 3242 5F5F 2E4D 4D44+  	dc.b	"R12B__.MMD;1", 0		; Palmtree Panic Act 2 past
0000B875                            File_R12C:
0000B875 5231 3243 5F5F 2E4D 4D44+  	dc.b	"R12C__.MMD;1", 0		; Palmtree Panic Act 2 good future
0000B882                            File_R12D:
0000B882 5231 3244 5F5F 2E4D 4D44+  	dc.b	"R12D__.MMD;1", 0		; Palmtree Panic Act 2 bad future
0000B88F                            File_TitleMain:
0000B88F 5449 544C 454D 2E4D 4D44+  	dc.b	"TITLEM.MMD;1", 0		; Title screen (Main CPU)
0000B89C                            File_TitleSub:
0000B89C 5449 544C 4553 2E42 494E+  	dc.b	"TITLES.BIN;1", 0		; Title screen (Sub CPU)
0000B8A9                            File_Warp:
0000B8A9 5741 5250 5F5F 2E4D 4D44+  	dc.b	"WARP__.MMD;1", 0		; Warp sequence
0000B8B6                            File_TimeAttackMain:
0000B8B6 4154 5441 434B 2E4D 4D44+  	dc.b	"ATTACK.MMD;1", 0		; Time attack (Main CPU)
0000B8C3                            File_TimeAttackSub:
0000B8C3 4154 5441 434B 2E42 494E+  	dc.b	"ATTACK.BIN;1", 0		; Time attack (Main CPU)
0000B8D0                            File_IPX:
0000B8D0 4950 585F 5F5F 2E4D 4D44+  	dc.b	"IPX___.MMD;1", 0		; Main program
0000B8DD                            File_PencilTestData:
0000B8DD 5054 4553 542E 5354 4D3B+  	dc.b	"PTEST.STM;1 ", 0		; Pencil test FMV data
0000B8EA                            File_OpeningData:
0000B8EA 4F50 4E2E 5354 4D3B 3120+  	dc.b	"OPN.STM;1   ", 0		; Opening FMV data
0000B8F7                            File_BadEndData:
0000B8F7 4241 4445 4E44 2E53 544D+  	dc.b	"BADEND.STM;1", 0		; Bad ending FMV data
0000B904                            File_GoodEndData:
0000B904 474F 4F44 454E 442E 5354+  	dc.b	"GOODEND.STM;1", 0		; Good ending FMV data
0000B912                            File_OpeningMain:
0000B912 4F50 454E 5F4D 2E4D 4D44+  	dc.b	"OPEN_M.MMD;1", 0		; Opening FMV (Main CPU)
0000B91F                            File_OpeningSub:
0000B91F 4F50 454E 5F53 2E42 494E+  	dc.b	"OPEN_S.BIN;1", 0		; Opening FMV (Sub CPU)
0000B92C                            File_CominSoon:
0000B92C 434F 4D45 5F5F 2E4D 4D44+  	dc.b	"COME__.MMD;1", 0		; "Comin' Soon" screen
0000B939                            File_DAGardenMain:
0000B939 504C 414E 4554 5F4D 2E4D+  	dc.b	"PLANET_M.MMD;1", 0		; D.A. Garden (Main CPU)
0000B948                            File_DAGardenSub:
0000B948 504C 414E 4554 5F53 2E42+  	dc.b	"PLANET_S.BIN;1", 0		; D.A. Garden (Sub CPU)
0000B957                            File_R31A:
0000B957 5233 3141 5F5F 2E4D 4D44+  	dc.b	"R31A__.MMD;1", 0		; Collision Chaos Act 1 present
0000B964                            File_R31B:
0000B964 5233 3142 5F5F 2E4D 4D44+  	dc.b	"R31B__.MMD;1", 0		; Collision Chaos Act 1 past
0000B971                            File_R31C:
0000B971 5233 3143 5F5F 2E4D 4D44+  	dc.b	"R31C__.MMD;1", 0		; Collision Chaos Act 1 good future
0000B97E                            File_R31D:
0000B97E 5233 3144 5F5F 2E4D 4D44+  	dc.b	"R31D__.MMD;1", 0		; Collision Chaos Act 1 bad future
0000B98B                            File_R32A:
0000B98B 5233 3241 5F5F 2E4D 4D44+  	dc.b	"R32A__.MMD;1", 0		; Collision Chaos Act 2 present
0000B998                            File_R32B:
0000B998 5233 3242 5F5F 2E4D 4D44+  	dc.b	"R32B__.MMD;1", 0		; Collision Chaos Act 2 past
0000B9A5                            File_R32C:
0000B9A5 5233 3243 5F5F 2E4D 4D44+  	dc.b	"R32C__.MMD;1", 0		; Collision Chaos Act 2 good future
0000B9B2                            File_R32D:
0000B9B2 5233 3244 5F5F 2E4D 4D44+  	dc.b	"R32D__.MMD;1", 0		; Collision Chaos Act 2 bad future
0000B9BF                            File_R33C:
0000B9BF 5233 3343 5F5F 2E4D 4D44+  	dc.b	"R33C__.MMD;1", 0		; Collision Chaos Act 3 good future
0000B9CC                            File_R33D:
0000B9CC 5233 3344 5F5F 2E4D 4D44+  	dc.b	"R33D__.MMD;1", 0		; Collision Chaos Act 3 bad future
0000B9D9                            File_R13C:
0000B9D9 5231 3343 5F5F 2E4D 4D44+  	dc.b	"R13C__.MMD;1", 0		; Palmtree Panic Act 3 good future
0000B9E6                            File_R13D:
0000B9E6 5231 3344 5F5F 2E4D 4D44+  	dc.b	"R13D__.MMD;1", 0		; Palmtree Panic Act 3 bad future
0000B9F3                            File_R41A:
0000B9F3 5234 3141 5F5F 2E4D 4D44+  	dc.b	"R41A__.MMD;1", 0		; Tidal Tempest Act 1 present
0000BA00                            File_R41B:
0000BA00 5234 3142 5F5F 2E4D 4D44+  	dc.b	"R41B__.MMD;1", 0		; Tidal Tempest Act 1 past
0000BA0D                            File_R41C:
0000BA0D 5234 3143 5F5F 2E4D 4D44+  	dc.b	"R41C__.MMD;1", 0		; Tidal Tempest Act 1 good future
0000BA1A                            File_R41D:
0000BA1A 5234 3144 5F5F 2E4D 4D44+  	dc.b	"R41D__.MMD;1", 0		; Tidal Tempest Act 1 bad future
0000BA27                            File_R42A:
0000BA27 5234 3241 5F5F 2E4D 4D44+  	dc.b	"R42A__.MMD;1", 0		; Tidal Tempest Act 2 present
0000BA34                            File_R42B:
0000BA34 5234 3242 5F5F 2E4D 4D44+  	dc.b	"R42B__.MMD;1", 0		; Tidal Tempest Act 2 past
0000BA41                            File_R42C:
0000BA41 5234 3243 5F5F 2E4D 4D44+  	dc.b	"R42C__.MMD;1", 0		; Tidal Tempest Act 2 good future
0000BA4E                            File_R42D:
0000BA4E 5234 3244 5F5F 2E4D 4D44+  	dc.b	"R42D__.MMD;1", 0		; Tidal Tempest Act 2 bad future
0000BA5B                            File_R43C:
0000BA5B 5234 3343 5F5F 2E4D 4D44+  	dc.b	"R43C__.MMD;1", 0		; Tidal Tempest Act 3 good future
0000BA68                            File_R43D:
0000BA68 5234 3344 5F5F 2E4D 4D44+  	dc.b	"R43D__.MMD;1", 0		; Tidal Tempest Act 3 bad future
0000BA75                            File_R51A:
0000BA75 5235 3141 5F5F 2E4D 4D44+  	dc.b	"R51A__.MMD;1", 0		; Quartz Quadrant Act 1 present
0000BA82                            File_R51B:
0000BA82 5235 3142 5F5F 2E4D 4D44+  	dc.b	"R51B__.MMD;1", 0		; Quartz Quadrant Act 1 past
0000BA8F                            File_R51C:
0000BA8F 5235 3143 5F5F 2E4D 4D44+  	dc.b	"R51C__.MMD;1", 0		; Quartz Quadrant Act 1 good future
0000BA9C                            File_R51D:
0000BA9C 5235 3144 5F5F 2E4D 4D44+  	dc.b	"R51D__.MMD;1", 0		; Quartz Quadrant Act 1 bad future
0000BAA9                            File_R52A:
0000BAA9 5235 3241 5F5F 2E4D 4D44+  	dc.b	"R52A__.MMD;1", 0		; Quartz Quadrant Act 2 present
0000BAB6                            File_R52B:
0000BAB6 5235 3242 5F5F 2E4D 4D44+  	dc.b	"R52B__.MMD;1", 0		; Quartz Quadrant Act 2 past
0000BAC3                            File_R52C:
0000BAC3 5235 3243 5F5F 2E4D 4D44+  	dc.b	"R52C__.MMD;1", 0		; Quartz Quadrant Act 2 good future
0000BAD0                            File_R52D:
0000BAD0 5235 3244 5F5F 2E4D 4D44+  	dc.b	"R52D__.MMD;1", 0		; Quartz Quadrant Act 2 bad future
0000BADD                            File_R53C:
0000BADD 5235 3343 5F5F 2E4D 4D44+  	dc.b	"R53C__.MMD;1", 0		; Quartz Quadrant Act 3 good future
0000BAEA                            File_R53D:
0000BAEA 5235 3344 5F5F 2E4D 4D44+  	dc.b	"R53D__.MMD;1", 0		; Quartz Quadrant Act 3 bad future
0000BAF7                            File_R61A:
0000BAF7 5236 3141 5F5F 2E4D 4D44+  	dc.b	"R61A__.MMD;1", 0		; Wacky Workbench Act 1 present
0000BB04                            File_R61B:
0000BB04 5236 3142 5F5F 2E4D 4D44+  	dc.b	"R61B__.MMD;1", 0		; Wacky Workbench Act 1 past
0000BB11                            File_R61C:
0000BB11 5236 3143 5F5F 2E4D 4D44+  	dc.b	"R61C__.MMD;1", 0		; Wacky Workbench Act 1 good future
0000BB1E                            File_R61D:
0000BB1E 5236 3144 5F5F 2E4D 4D44+  	dc.b	"R61D__.MMD;1", 0		; Wacky Workbench Act 1 bad future
0000BB2B                            File_R62A:
0000BB2B 5236 3241 5F5F 2E4D 4D44+  	dc.b	"R62A__.MMD;1", 0		; Wacky Workbench Act 2 present
0000BB38                            File_R62B:
0000BB38 5236 3242 5F5F 2E4D 4D44+  	dc.b	"R62B__.MMD;1", 0		; Wacky Workbench Act 2 past
0000BB45                            File_R62C:
0000BB45 5236 3243 5F5F 2E4D 4D44+  	dc.b	"R62C__.MMD;1", 0		; Wacky Workbench Act 2 good future
0000BB52                            File_R62D:
0000BB52 5236 3244 5F5F 2E4D 4D44+  	dc.b	"R62D__.MMD;1", 0		; Wacky Workbench Act 2 bad future
0000BB5F                            File_R63C:
0000BB5F 5236 3343 5F5F 2E4D 4D44+  	dc.b	"R63C__.MMD;1", 0		; Wacky Workbench Act 3 good future
0000BB6C                            File_R63D:
0000BB6C 5236 3344 5F5F 2E4D 4D44+  	dc.b	"R63D__.MMD;1", 0		; Wacky Workbench Act 3 bad future
0000BB79                            File_R71A:
0000BB79 5237 3141 5F5F 2E4D 4D44+  	dc.b	"R71A__.MMD;1", 0		; Stardust Speedway Act 1 present
0000BB86                            File_R71B:
0000BB86 5237 3142 5F5F 2E4D 4D44+  	dc.b	"R71B__.MMD;1", 0		; Stardust Speedway Act 1 past
0000BB93                            File_R71C:
0000BB93 5237 3143 5F5F 2E4D 4D44+  	dc.b	"R71C__.MMD;1", 0		; Stardust Speedway Act 1 good future
0000BBA0                            File_R71D:
0000BBA0 5237 3144 5F5F 2E4D 4D44+  	dc.b	"R71D__.MMD;1", 0		; Stardust Speedway Act 1 bad future
0000BBAD                            File_R72A:
0000BBAD 5237 3241 5F5F 2E4D 4D44+  	dc.b	"R72A__.MMD;1", 0		; Stardust Speedway Act 2 present
0000BBBA                            File_R72B:
0000BBBA 5237 3242 5F5F 2E4D 4D44+  	dc.b	"R72B__.MMD;1", 0		; Stardust Speedway Act 2 past
0000BBC7                            File_R72C:
0000BBC7 5237 3243 5F5F 2E4D 4D44+  	dc.b	"R72C__.MMD;1", 0		; Stardust Speedway Act 2 good future
0000BBD4                            File_R72D:
0000BBD4 5237 3244 5F5F 2E4D 4D44+  	dc.b	"R72D__.MMD;1", 0		; Stardust Speedway Act 2 bad future
0000BBE1                            File_R73C:
0000BBE1 5237 3343 5F5F 2E4D 4D44+  	dc.b	"R73C__.MMD;1", 0		; Stardust Speedway Act 3 good future
0000BBEE                            File_R73D:
0000BBEE 5237 3344 5F5F 2E4D 4D44+  	dc.b	"R73D__.MMD;1", 0		; Stardust Speedway Act 3 bad future
0000BBFB                            File_R81A:
0000BBFB 5238 3141 5F5F 2E4D 4D44+  	dc.b	"R81A__.MMD;1", 0		; Metallic Madness Act 1 present
0000BC08                            File_R81B:
0000BC08 5238 3142 5F5F 2E4D 4D44+  	dc.b	"R81B__.MMD;1", 0		; Metallic Madness Act 1 past
0000BC15                            File_R81C:
0000BC15 5238 3143 5F5F 2E4D 4D44+  	dc.b	"R81C__.MMD;1", 0		; Metallic Madness Act 1 good future
0000BC22                            File_R81D:
0000BC22 5238 3144 5F5F 2E4D 4D44+  	dc.b	"R81D__.MMD;1", 0		; Metallic Madness Act 1 bad future
0000BC2F                            File_R82A:
0000BC2F 5238 3241 5F5F 2E4D 4D44+  	dc.b	"R82A__.MMD;1", 0		; Metallic Madness Act 2 present
0000BC3C                            File_R82B:
0000BC3C 5238 3242 5F5F 2E4D 4D44+  	dc.b	"R82B__.MMD;1", 0		; Metallic Madness Act 2 past
0000BC49                            File_R82C:
0000BC49 5238 3243 5F5F 2E4D 4D44+  	dc.b	"R82C__.MMD;1", 0		; Metallic Madness Act 2 good future
0000BC56                            File_R82D:
0000BC56 5238 3244 5F5F 2E4D 4D44+  	dc.b	"R82D__.MMD;1", 0		; Metallic Madness Act 2 bad future
0000BC63                            File_R83C:
0000BC63 5238 3343 5F5F 2E4D 4D44+  	dc.b	"R83C__.MMD;1", 0		; Metallic Madness Act 3 good future
0000BC70                            File_R83D:
0000BC70 5238 3344 5F5F 2E4D 4D44+  	dc.b	"R83D__.MMD;1", 0		; Metallic Madness Act 3 bad future
0000BC7D                            File_SpecialMain:
0000BC7D 5350 4D4D 5F5F 2E4D 4D44+  	dc.b	"SPMM__.MMD;1", 0		; Special Stage (Main CPU)
0000BC8A                            File_SpecialSub:
0000BC8A 5350 5353 5F5F 2E42 494E+  	dc.b	"SPSS__.BIN;1", 0		; Special Stage (Sub CPU)
0000BC97                            File_R1PCM:
0000BC97 534E 4342 4E4B 3142 2E42+  	dc.b	"SNCBNK1B.BIN;1", 0		; PCM driver (Palmtree Panic)
0000BCA6                            File_R3PCM:
0000BCA6 534E 4342 4E4B 3342 2E42+  	dc.b	"SNCBNK3B.BIN;1", 0		; PCM driver (Collision Chaos)
0000BCB5                            File_R4PCM:
0000BCB5 534E 4342 4E4B 3442 2E42+  	dc.b	"SNCBNK4B.BIN;1", 0		; PCM driver (Tidal Tempest)
0000BCC4                            File_R5PCM:
0000BCC4 534E 4342 4E4B 3542 2E42+  	dc.b	"SNCBNK5B.BIN;1", 0		; PCM driver (Quartz Quadrant)
0000BCD3                            File_R6PCM:
0000BCD3 534E 4342 4E4B 3642 2E42+  	dc.b	"SNCBNK6B.BIN;1", 0		; PCM driver (Wacky Workbench)
0000BCE2                            File_R7PCM:
0000BCE2 534E 4342 4E4B 3742 2E42+  	dc.b	"SNCBNK7B.BIN;1", 0		; PCM driver (Stardust Speedway)
0000BCF1                            File_R8PCM:
0000BCF1 534E 4342 4E4B 3842 2E42+  	dc.b	"SNCBNK8B.BIN;1", 0		; PCM driver (Metallic Madness)
0000BD00                            File_BossPCM:
0000BD00 534E 4342 4E4B 4231 2E42+  	dc.b	"SNCBNKB1.BIN;1", 0		; PCM driver (Boss)
0000BD0F                            File_FinalPCM:
0000BD0F 534E 4342 4E4B 4232 2E42+  	dc.b	"SNCBNKB2.BIN;1", 0		; PCM driver (Final boss)
0000BD1E                            File_DAGardenData:
0000BD1E 504C 414E 4554 5F44 2E42+  	dc.b	"PLANET_D.BIN;1", 0		; D.A Garden data
0000BD2D                            File_Demo11A:
0000BD2D 4445 4D4F 3131 412E 4D4D+  	dc.b	"DEMO11A.MMD;1", 0		; Palmtree Panic Act 1 present demo
0000BD3B                            File_VisualMode:
0000BD3B 564D 5F5F 5F5F 2E4D 4D44+  	dc.b	"VM____.MMD;1", 0		; Visual Mode
0000BD48                            File_BuRAMInit:
0000BD48 4252 414D 494E 4954 2E4D+  	dc.b	"BRAMINIT.MMD;1", 0		; Backup RAM initialization
0000BD57                            File_BuRAMSub:
0000BD57 4252 414D 5355 422E 4249+  	dc.b	"BRAMSUB.BIN;1", 0		; Backup RAM functions
0000BD65                            File_BuRAMMain:
0000BD65 4252 414D 4D41 494E 2E4D+  	dc.b	"BRAMMAIN.MMD;1", 0		; Backup RAM manager
0000BD74                            File_ThanksMain:
0000BD74 5448 414E 4B53 5F4D 2E4D+  	dc.b	"THANKS_M.MMD;1", 0		; "Thank You" screen (Main CPU)
0000BD83                            File_ThanksSub:
0000BD83 5448 414E 4B53 5F53 2E42+  	dc.b	"THANKS_S.BIN;1", 0		; "Thank You" screen (Sub CPU)
0000BD92                            File_ThanksData:
0000BD92 5448 414E 4B53 5F44 2E42+  	dc.b	"THANKS_D.BIN;1", 0		; "Thank You" screen data
0000BDA1                            File_EndingMain:
0000BDA1 454E 4449 4E47 2E4D 4D44+  	dc.b	"ENDING.MMD;1", 0		; Ending FMV (Main CPU)
0000BDAE                            File_GoodEndSub:
0000BDAE 474F 4F44 454E 442E 4249+  	dc.b	"GOODEND.BIN;1", 0 		; Good ending FMV (Sub CPU)
0000BDBC                            File_BadEndSub:
0000BDBC 4241 4445 4E44 2E42 494E+  	dc.b	"BADEND.BIN;1", 0 		; Bad ending FMV (Sub CPU)
0000BDC9                            File_FunIsInf:
0000BDC9 4E49 5349 2E4D 4D44 3B31+  	dc.b	"NISI.MMD;1", 0			; "Fun is infinite" screen
0000BDD4                            File_StaffCredits:
0000BDD4 5350 4545 4E44 2E4D 4D44+  	dc.b	"SPEEND.MMD;1", 0		; Staff credits
0000BDE1                            File_MCSonic:
0000BDE1 4455 4D4D 5930 2E4D 4D44+  	dc.b	"DUMMY0.MMD;1", 0		; M.C. Sonic screen
0000BDEE                            File_Tails:
0000BDEE 4455 4D4D 5931 2E4D 4D44+  	dc.b	"DUMMY1.MMD;1", 0		; Tails screen
0000BDFB                            File_BatmanSonic:
0000BDFB 4455 4D4D 5932 2E4D 4D44+  	dc.b	"DUMMY2.MMD;1", 0		; Batman Sonic screen
0000BE08                            File_CuteSonic:
0000BE08 4455 4D4D 5933 2E4D 4D44+  	dc.b	"DUMMY3.MMD;1", 0		; Cute Sonic screen
0000BE15                            File_StaffTimes:
0000BE15 4455 4D4D 5934 2E4D 4D44+  	dc.b	"DUMMY4.MMD;1", 0		; Best staff times screen
0000BE22                            File_Dummy5:
0000BE22 4455 4D4D 5935 2E4D 4D44+  	dc.b	"DUMMY5.MMD;1", 0		; Copy of sound test (Unused)
0000BE2F                            File_Dummy6:
0000BE2F 4455 4D4D 5936 2E4D 4D44+  	dc.b	"DUMMY6.MMD;1", 0		; Copy of sound test (Unused)
0000BE3C                            File_Dummy7:
0000BE3C 4455 4D4D 5937 2E4D 4D44+  	dc.b	"DUMMY7.MMD;1", 0		; Copy of sound test (Unused)
0000BE49                            File_Dummy8:
0000BE49 4455 4D4D 5938 2E4D 4D44+  	dc.b	"DUMMY8.MMD;1", 0		; Copy of sound test (Unused)
0000BE56                            File_Dummy9:
0000BE56 4455 4D4D 5939 2E4D 4D44+  	dc.b	"DUMMY9.MMD;1", 0		; Copy of sound test (Unused)
0000BE63                            File_PencilTestMain:
0000BE63 5054 4553 542E 4D4D 443B+  	dc.b	"PTEST.MMD;1", 0		; Pencil test FMV (Main CPU)
0000BE6F                            File_PencilTestSub:
0000BE6F 5054 4553 542E 4249 4E3B+  	dc.b	"PTEST.BIN;1", 0		; Pencil test FMV (Sub CPU)
0000BE7B                            File_Demo43C:
0000BE7B 4445 4D4F 3433 432E 4D4D+  	dc.b	"DEMO43C.MMD;1", 0		; Tidal Tempest Act 3 good future demo
0000BE89                            File_Demo82A:
0000BE89 4445 4D4F 3832 412E 4D4D+  	dc.b	"DEMO82A.MMD;1", 0		; Metallic Madness Act 2 present demo
0000BE98 00                         	even
0000BE98                            
0000BE98                            ; -------------------------------------------------------------------------------
0000BE98                            ; Backup RAM read parameters
0000BE98                            ; -------------------------------------------------------------------------------
0000BE98                            
0000BE98                            BuRAMReadParams:
0000BE98 534F 4E49 4343 445F 5F5F+  	dc.b	"SONICCD____"
0000BEA4 00                         	even
0000BEA4                            
0000BEA4                            ; -------------------------------------------------------------------------------
0000BEA4                            ; Backup RAM write parameters
0000BEA4                            ; -------------------------------------------------------------------------------
0000BEA4                            
0000BEA4                            BuRAMWriteParams:
0000BEA4 534F 4E49 4343 445F 5F5F+  	dc.b	"SONICCD____"
0000BEAF 00                         	dc.b	0
0000BEB0 000B                       	dc.w	$B
0000BEB2                            
0000BEB2                            ; -------------------------------------------------------------------------------
0000BEB2                            ; System program extension start
0000BEB2                            ; -------------------------------------------------------------------------------
0000BEB2                            
0000BEB2                            	align	SPXStart
0000C000 41F8 7000                  	lea	SPVariables.w,a0		; Clear parameters
0000C004 3E3C 00FF                  	move.w	#SP_VARS_LEN/4-1,d7
0000C008                            
0000C008                            .ClearVars:
0000C008 20FC 0000 0000             	move.l	#0,(a0)+
0000C00E 51CF FFF8                  	dbf	d7,.ClearVars
0000C012                            
0000C012 08B8 0003 8033             	bclr	#3,GA_INT_MASK+1.w		; Disable timer interrupt
0000C018 21FC 0000 0000 5F84        	move.l	#RunPCMDriver,_LEVEL3+2.w	; Set timer interrupt address
0000C020 11FC 00FF 8031             	move.b	#255,GA_INT3_TIMER+1.w		; Set timer interrupt interval
0000C026                            
0000C026                            .WaitCommand:
0000C026 3038 8010                  	move.w	GA_CMD_0.w,d0			; Get command ID from Main CPU
0000C02A 67FA                       	beq.s	.WaitCommand
0000C02C B078 8010                  	cmp.w	GA_CMD_0.w,d0
0000C030 66F4                       	bne.s	.WaitCommand
0000C032 0C40 0000                  	cmpi.w	#(.SPCmdsEnd-.SPCmds)/2+1,d0	; Note: that "+1" shouldn't be there
0000C036 6400 0000                  	bcc.w	SPCmdFinish			; If it's an invalid ID, branch
0000C03A                            
0000C03A 3200                       	move.w	d0,d1				; Execute command
0000C03C D040                       	add.w	d0,d0
0000C03E 303B 0000                  	move.w	.SPCmds(pc,d0.w),d0
0000C042 4EBB 0000                  	jsr	.SPCmds(pc,d0.w)
0000C046                            
0000C046 21FC 0000 7700 5F36        	move.l	#SPIRQ2,_USERCALL2+2.w		; Restore IRQ2 address
0000C04E 08B8 0001 8033             	bclr	#1,GA_INT_MASK+1.w		; Disable level 1 interrupt
0000C054 21FC 0000 0000 5F78        	move.l	#IRQ1Null,_LEVEL1+2.w		; Reset level 1 interrupt address
0000C05C                            
0000C05C 60C8                       	bra.s	.WaitCommand			; Loop
0000C05E                            
0000C05E                            ; -------------------------------------------------------------------------------
0000C05E                            
0000C05E                            .SPCmds:
0000C05E 0000                       	dc.w	0				; $00 | Invalid
0000C060 0000                       	dc.w	SPCmd_LoadLevel-.SPCmds		; $01 | Load Palmtree Panic Act 1 present
0000C062 0000                       	dc.w	SPCmd_LoadLevel-.SPCmds		; $02 | Load Palmtree Panic Act 1 past
0000C064 0000                       	dc.w	SPCmd_LoadLevel-.SPCmds		; $03 | Load Palmtree Panic Act 1 good future
0000C066 0000                       	dc.w	SPCmd_LoadLevel-.SPCmds		; $04 | Load Palmtree Panic Act 1 bad future
0000C068 0000                       	dc.w	SPCmd_LoadMDInit-.SPCmds	; $05 | Load Mega Drive initialization
0000C06A 0000                       	dc.w	SPCmd_LoadStageSel-.SPCmds	; $06 | Load stage select
0000C06C 0000                       	dc.w	SPCmd_LoadLevel-.SPCmds		; $07 | Load Palmtree Panic Act 2 present
0000C06E 0000                       	dc.w	SPCmd_LoadLevel-.SPCmds		; $08 | Load Palmtree Panic Act 2 past
0000C070 0000                       	dc.w	SPCmd_LoadLevel-.SPCmds		; $09 | Load Palmtree Panic Act 2 good future
0000C072 0000                       	dc.w	SPCmd_LoadLevel-.SPCmds		; $0A | Load Palmtree Panic Act 2 bad future
0000C074 0000                       	dc.w	SPCmd_LoadTitle-.SPCmds		; $0B | Load title screen
0000C076 0000                       	dc.w	SPCmd_LoadWarp-.SPCmds		; $0C | Load warp sequence
0000C078 0000                       	dc.w	SPCmd_LoadTimeAttack-.SPCmds	; $0D | Load time attack menu
0000C07A 0000                       	dc.w	SPCmd_FadeOutCDDA-.SPCmds	; $0E | Fade out CDDA music
0000C07C 0000                       	dc.w	SPCmd_PlayR1AMus-.SPCmds	; $0F | Play Palmtree Panic present music
0000C07E 0000                       	dc.w	SPCmd_PlayR1CMus-.SPCmds	; $10 | Play Palmtree Panic good future music
0000C080 0000                       	dc.w	SPCmd_PlayR1DMus-.SPCmds	; $11 | Play Palmtree Panic bad future music
0000C082 0000                       	dc.w	SPCmd_PlayR3AMus-.SPCmds	; $12 | Play Collision Chaos present music
0000C084 0000                       	dc.w	SPCmd_PlayR3CMus-.SPCmds	; $13 | Play Collision Chaos good future music
0000C086 0000                       	dc.w	SPCmd_PlayR3DMus-.SPCmds	; $14 | Play Collision Chaos bad future music
0000C088 0000                       	dc.w	SPCmd_PlayR4AMus-.SPCmds	; $15 | Play Tidal Tempest present music
0000C08A 0000                       	dc.w	SPCmd_PlayR4CMus-.SPCmds	; $16 | Play Tidal Tempest good future music
0000C08C 0000                       	dc.w	SPCmd_PlayR4DMus-.SPCmds	; $17 | Play Tidal Tempest bad future music
0000C08E 0000                       	dc.w	SPCmd_PlayR5AMus-.SPCmds	; $18 | Play Quartz Quadrant present music
0000C090 0000                       	dc.w	SPCmd_PlayR5CMus-.SPCmds	; $19 | Play Quartz Quadrant good future music
0000C092 0000                       	dc.w	SPCmd_PlayR5DMus-.SPCmds	; $1A | Play Quartz Quadrant bad future music
0000C094 0000                       	dc.w	SPCmd_PlayR6AMus-.SPCmds	; $1B | Play Wacky Workbench present music
0000C096 0000                       	dc.w	SPCmd_PlayR6CMus-.SPCmds	; $1C | Play Wacky Workbench good future music
0000C098 0000                       	dc.w	SPCmd_PlayR6DMus-.SPCmds	; $1D | Play Wacky Workbench bad future music
0000C09A 0000                       	dc.w	SPCmd_PlayR7AMus-.SPCmds	; $1E | Play Stardust Speedway present music
0000C09C 0000                       	dc.w	SPCmd_PlayR7CMus-.SPCmds	; $1F | Play Stardust Speedway good future music
0000C09E 0000                       	dc.w	SPCmd_PlayR7DMus-.SPCmds	; $20 | Play Stardust Speedway bad future music
0000C0A0 0000                       	dc.w	SPCmd_PlayR8AMus-.SPCmds	; $21 | Play Metallic Madness present music
0000C0A2 0000                       	dc.w	SPCmd_PlayR8CMus-.SPCmds	; $22 | Play Metallic Madness good future music
0000C0A4 0000                       	dc.w	SPCmd_LoadIPX-.SPCmds		; $23 | Load main program
0000C0A6 0000                       	dc.w	SPCmd_LoadLevel-.SPCmds		; $24 | Load Tidal Tempest Act 3 good future demo
0000C0A8 0000                       	dc.w	SPCmd_LoadLevel-.SPCmds		; $25 | Load Metallic Madness Act 2 present demo
0000C0AA 0000                       	dc.w	SPCmd_LoadSndTest-.SPCmds	; $26 | Load sound test
0000C0AC 0000                       	dc.w	SPCmd_LoadLevel-.SPCmds		; $27 | Invalid
0000C0AE 0000                       	dc.w	SPCmd_LoadLevel-.SPCmds		; $28 | Load Collision Chaos Act 1 present
0000C0B0 0000                       	dc.w	SPCmd_LoadLevel-.SPCmds		; $29 | Load Collision Chaos Act 1 past
0000C0B2 0000                       	dc.w	SPCmd_LoadLevel-.SPCmds		; $2A | Load Collision Chaos Act 1 good future
0000C0B4 0000                       	dc.w	SPCmd_LoadLevel-.SPCmds		; $2B | Load Collision Chaos Act 1 bad future
0000C0B6 0000                       	dc.w	SPCmd_LoadLevel-.SPCmds		; $2C | Load Collision Chaos Act 2 present 
0000C0B8 0000                       	dc.w	SPCmd_LoadLevel-.SPCmds		; $2D | Load Collision Chaos Act 2 past 
0000C0BA 0000                       	dc.w	SPCmd_LoadLevel-.SPCmds		; $2E | Load Collision Chaos Act 2 good future 
0000C0BC 0000                       	dc.w	SPCmd_LoadLevel-.SPCmds		; $2F | Load Collision Chaos Act 2 bad future 
0000C0BE 0000                       	dc.w	SPCmd_LoadLevel-.SPCmds		; $30 | Load Collision Chaos Act 3 good future 
0000C0C0 0000                       	dc.w	SPCmd_LoadLevel-.SPCmds		; $31 | Load Collision Chaos Act 3 bad future 
0000C0C2 0000                       	dc.w	SPCmd_LoadLevel-.SPCmds		; $32 | Load Palmtree Panic Act 3 good future
0000C0C4 0000                       	dc.w	SPCmd_LoadLevel-.SPCmds		; $33 | Load Palmtree Panic Act 3 bad future 
0000C0C6 0000                       	dc.w	SPCmd_LoadLevel-.SPCmds		; $34 | Load Tidal Tempest Act 1 present
0000C0C8 0000                       	dc.w	SPCmd_LoadLevel-.SPCmds		; $35 | Load Tidal Tempest Act 1 past
0000C0CA 0000                       	dc.w	SPCmd_LoadLevel-.SPCmds		; $36 | Load Tidal Tempest Act 1 good future
0000C0CC 0000                       	dc.w	SPCmd_LoadLevel-.SPCmds		; $37 | Load Tidal Tempest Act 1 bad future
0000C0CE 0000                       	dc.w	SPCmd_LoadLevel-.SPCmds		; $38 | Load Tidal Tempest Act 2 present 
0000C0D0 0000                       	dc.w	SPCmd_LoadLevel-.SPCmds		; $39 | Load Tidal Tempest Act 2 past 
0000C0D2 0000                       	dc.w	SPCmd_LoadLevel-.SPCmds		; $3A | Load Tidal Tempest Act 2 good future 
0000C0D4 0000                       	dc.w	SPCmd_LoadLevel-.SPCmds		; $3B | Load Tidal Tempest Act 2 bad future 
0000C0D6 0000                       	dc.w	SPCmd_LoadLevel-.SPCmds		; $3C | Load Tidal Tempest Act 3 good future 
0000C0D8 0000                       	dc.w	SPCmd_LoadLevel-.SPCmds		; $3D | Load Tidal Tempest Act 3 bad future 
0000C0DA 0000                       	dc.w	SPCmd_LoadLevel-.SPCmds		; $3E | Load Quartz Quadrant Act 1 present
0000C0DC 0000                       	dc.w	SPCmd_LoadLevel-.SPCmds		; $3F | Load Quartz Quadrant Act 1 past
0000C0DE 0000                       	dc.w	SPCmd_LoadLevel-.SPCmds		; $40 | Load Quartz Quadrant Act 1 good future
0000C0E0 0000                       	dc.w	SPCmd_LoadLevel-.SPCmds		; $41 | Load Quartz Quadrant Act 1 bad future
0000C0E2 0000                       	dc.w	SPCmd_LoadLevel-.SPCmds		; $42 | Load Quartz Quadrant Act 2 present 
0000C0E4 0000                       	dc.w	SPCmd_LoadLevel-.SPCmds		; $43 | Load Quartz Quadrant Act 2 past 
0000C0E6 0000                       	dc.w	SPCmd_LoadLevel-.SPCmds		; $44 | Load Quartz Quadrant Act 2 good future 
0000C0E8 0000                       	dc.w	SPCmd_LoadLevel-.SPCmds		; $45 | Load Quartz Quadrant Act 2 bad future 
0000C0EA 0000                       	dc.w	SPCmd_LoadLevel-.SPCmds		; $46 | Load Quartz Quadrant Act 3 good future 
0000C0EC 0000                       	dc.w	SPCmd_LoadLevel-.SPCmds		; $47 | Load Quartz Quadrant Act 3 bad future 
0000C0EE 0000                       	dc.w	SPCmd_LoadLevel-.SPCmds		; $48 | Load Wacky Workbench Act 1 present
0000C0F0 0000                       	dc.w	SPCmd_LoadLevel-.SPCmds		; $49 | Load Wacky Workbench Act 1 past
0000C0F2 0000                       	dc.w	SPCmd_LoadLevel-.SPCmds		; $4A | Load Wacky Workbench Act 1 good future
0000C0F4 0000                       	dc.w	SPCmd_LoadLevel-.SPCmds		; $4B | Load Wacky Workbench Act 1 bad future
0000C0F6 0000                       	dc.w	SPCmd_LoadLevel-.SPCmds		; $4C | Load Wacky Workbench Act 2 present 
0000C0F8 0000                       	dc.w	SPCmd_LoadLevel-.SPCmds		; $4D | Load Wacky Workbench Act 2 past 
0000C0FA 0000                       	dc.w	SPCmd_LoadLevel-.SPCmds		; $4E | Load Wacky Workbench Act 2 good future 
0000C0FC 0000                       	dc.w	SPCmd_LoadLevel-.SPCmds		; $4F | Load Wacky Workbench Act 2 bad future 
0000C0FE 0000                       	dc.w	SPCmd_LoadLevel-.SPCmds		; $50 | Load Wacky Workbench Act 3 good future 
0000C100 0000                       	dc.w	SPCmd_LoadLevel-.SPCmds		; $51 | Load Wacky Workbench Act 3 bad future 
0000C102 0000                       	dc.w	SPCmd_LoadLevel-.SPCmds		; $52 | Load Stardust Speedway Act 1 present
0000C104 0000                       	dc.w	SPCmd_LoadLevel-.SPCmds		; $53 | Load Stardust Speedway Act 1 past
0000C106 0000                       	dc.w	SPCmd_LoadLevel-.SPCmds		; $54 | Load Stardust Speedway Act 1 good future
0000C108 0000                       	dc.w	SPCmd_LoadLevel-.SPCmds		; $55 | Load Stardust Speedway Act 1 bad future
0000C10A 0000                       	dc.w	SPCmd_LoadLevel-.SPCmds		; $56 | Load Stardust Speedway Act 2 present 
0000C10C 0000                       	dc.w	SPCmd_LoadLevel-.SPCmds		; $57 | Load Stardust Speedway Act 2 past 
0000C10E 0000                       	dc.w	SPCmd_LoadLevel-.SPCmds		; $58 | Load Stardust Speedway Act 2 good future 
0000C110 0000                       	dc.w	SPCmd_LoadLevel-.SPCmds		; $59 | Load Stardust Speedway Act 2 bad future 
0000C112 0000                       	dc.w	SPCmd_LoadLevel-.SPCmds		; $5A | Load Stardust Speedway Act 3 good future 
0000C114 0000                       	dc.w	SPCmd_LoadLevel-.SPCmds		; $5B | Load Stardust Speedway Act 3 bad future 
0000C116 0000                       	dc.w	SPCmd_LoadLevel-.SPCmds		; $5C | Load Metallic Madness Act 1 present
0000C118 0000                       	dc.w	SPCmd_LoadLevel-.SPCmds		; $5D | Load Metallic Madness Act 1 past
0000C11A 0000                       	dc.w	SPCmd_LoadLevel-.SPCmds		; $5E | Load Metallic Madness Act 1 good future
0000C11C 0000                       	dc.w	SPCmd_LoadLevel-.SPCmds		; $5F | Load Metallic Madness Act 1 bad future
0000C11E 0000                       	dc.w	SPCmd_LoadLevel-.SPCmds		; $60 | Load Metallic Madness Act 2 present 
0000C120 0000                       	dc.w	SPCmd_LoadLevel-.SPCmds		; $61 | Load Metallic Madness Act 2 past 
0000C122 0000                       	dc.w	SPCmd_LoadLevel-.SPCmds		; $62 | Load Metallic Madness Act 2 good future 
0000C124 0000                       	dc.w	SPCmd_LoadLevel-.SPCmds		; $63 | Load Metallic Madness Act 2 bad future 
0000C126 0000                       	dc.w	SPCmd_LoadLevel-.SPCmds		; $64 | Load Metallic Madness Act 3 good future 
0000C128 0000                       	dc.w	SPCmd_LoadLevel-.SPCmds		; $65 | Load Metallic Madness Act 3 bad future 
0000C12A 0000                       	dc.w	SPCmd_PlayR8DMus-.SPCmds	; $66 | Play Metallic Madness bad future music
0000C12C 0000                       	dc.w	SPCmd_PlayBossMus-.SPCmds	; $67 | Play boss music
0000C12E 0000                       	dc.w	SPCmd_PlayFinalMus-.SPCmds	; $68 | Play final boss music
0000C130 0000                       	dc.w	SPCmd_PlayTitleMus-.SPCmds	; $69 | Play title screen music
0000C132 0000                       	dc.w	SPCmd_PlayTimeAtkMus-.SPCmds	; $6A | Play time attack menu music
0000C134 0000                       	dc.w	SPCmd_PlayLvlEndMus-.SPCmds	; $6B | Play level end music
0000C136 0000                       	dc.w	SPCmd_PlayShoesMus-.SPCmds	; $6C | Play speed shoes music
0000C138 0000                       	dc.w	SPCmd_PlayInvincMus-.SPCmds	; $6D | Play invincibility music
0000C13A 0000                       	dc.w	SPCmd_PlayGameOverMus-.SPCmds	; $6E | Play game over music
0000C13C 0000                       	dc.w	SPCmd_PlaySpecialMus-.SPCmds	; $6F | Play special stage music
0000C13E 0000                       	dc.w	SPCmd_PlayDAGardenMus-.SPCmds	; $70 | Play D.A. Garden music
0000C140 0000                       	dc.w	SPCmd_PlayProtoWarp-.SPCmds	; $71 | Play prototype warp sound
0000C142 0000                       	dc.w	SPCmd_PlayIntroMus-.SPCmds	; $72 | Play opening music
0000C144 0000                       	dc.w	SPCmd_PlayEndingMus-.SPCmds	; $73 | Play ending music
0000C146 0000                       	dc.w	SPCmd_StopCDDA-.SPCmds		; $74 | Stop CDDA music
0000C148 0000                       	dc.w	SPCmd_LoadSpecStage-.SPCmds	; $75 | Load special stage
0000C14A 0000                       	dc.w	SPCmd_PlayFutureSFX-.SPCmds	; $76 | Play "Future" voice clip
0000C14C 0000                       	dc.w	SPCmd_PlayPastSFX-.SPCmds	; $77 | Play "Past" voice clip
0000C14E 0000                       	dc.w	SPCmd_PlayAlrightSFX-.SPCmds	; $78 | Play "Alright" voice clip
0000C150 0000                       	dc.w	SPCmd_PlayGiveUpSFX-.SPCmds	; $79 | Play "I'm outta here" voice clip
0000C152 0000                       	dc.w	SPCmd_PlayYesSFX-.SPCmds	; $7A | Play "Yes" voice clip
0000C154 0000                       	dc.w	SPCmd_PlayYeahSFX-.SPCmds	; $7B | Play "Yeah" voice clip
0000C156 0000                       	dc.w	SPCmd_PlayGiggleSFX-.SPCmds	; $7C | Play Amy giggle voice clip
0000C158 0000                       	dc.w	SPCmd_PlayAmyYelpSFX-.SPCmds	; $7D | Play Amy yelp voice clip
0000C15A 0000                       	dc.w	SPCmd_PlayStompSFX-.SPCmds	; $7E | Play boss stomp sound
0000C15C 0000                       	dc.w	SPCmd_PlayBumperSFX-.SPCmds	; $7F | Play bumper sound
0000C15E 0000                       	dc.w	SPCmd_PlayPastMus-.SPCmds	; $80 | Play past music
0000C160 0000                       	dc.w	SPCmd_LoadDAGarden-.SPCmds	; $81 | Load D.A. Garden
0000C162 0000                       	dc.w	SPCmd_FadeOutPCM-.SPCmds	; $82 | Fade out PCM
0000C164 0000                       	dc.w	SPCmd_StopPCM-.SPCmds		; $83 | Stop PCM
0000C166 0000                       	dc.w	SPCmd_LoadLevel-.SPCmds		; $84 | Load Palmtree Panic Act 1 present demo
0000C168 0000                       	dc.w	SPCmd_LoadVisualMode-.SPCmds	; $85 | Load Visual Mode menu
0000C16A 0000                       	dc.w	SPCmd_ResetSSFlags2-.SPCmds	; $86 | Reset special stage flags
0000C16C 0000                       	dc.w	SPCmd_ReadSaveData-.SPCmds	; $87 | Read save data
0000C16E 0000                       	dc.w	SPCmd_WriteSaveData-.SPCmds	; $88 | Write save data
0000C170 0000                       	dc.w	SPCmd_LoadBuRAMInit-.SPCmds	; $89 | Load Backup RAM initialization
0000C172 0000                       	dc.w	SPCmd_ResetSSFlags-.SPCmds	; $8A | Reset special stage flags
0000C174 0000                       	dc.w	SPCmd_ReadTempSaveData-.SPCmds	; $8B | Read temporary save data
0000C176 0000                       	dc.w	SPCmd_WriteTempSaveData-.SPCmds	; $8C | Write temporary save data
0000C178 0000                       	dc.w	SPCmd_LoadThankYou-.SPCmds	; $8D | Load "Thank You" screen
0000C17A 0000                       	dc.w	SPCmd_LoadBuRAMMngr-.SPCmds	; $8E | Load Backup RAM manager
0000C17C 0000                       	dc.w	SPCmd_ResetCDDAVol-.SPCmds	; $8F | Reset CDDA music volume
0000C17E 0000                       	dc.w	SPCmd_PausePCM-.SPCmds		; $90 | Pause PCM
0000C180 0000                       	dc.w	SPCmd_UnpausePCM-.SPCmds	; $91 | Unpause PCM
0000C182 0000                       	dc.w	SPCmd_PlayBreakSFX-.SPCmds	; $92 | Play glass break sound
0000C184 0000                       	dc.w	SPCmd_LoadGoodEnd-.SPCmds	; $93 | Load good ending FMV
0000C186 0000                       	dc.w	SPCmd_LoadBadEnd-.SPCmds	; $94 | Load bad ending FMV
0000C188 0000                       	dc.w	SPCmd_TestR1AMus-.SPCmds	; $95 | Play Palmtree Panic present music (sound test)
0000C18A 0000                       	dc.w	SPCmd_TestR1CMus-.SPCmds	; $96 | Play Palmtree Panic good future music (sound test)
0000C18C 0000                       	dc.w	SPCmd_TestR1DMus-.SPCmds	; $97 | Play Palmtree Panic bad future music (sound test)
0000C18E 0000                       	dc.w	SPCmd_TestR3AMus-.SPCmds	; $98 | Play Collision Chaos present music (sound test)
0000C190 0000                       	dc.w	SPCmd_TestR3CMus-.SPCmds	; $99 | Play Collision Chaos good future music (sound test)
0000C192 0000                       	dc.w	SPCmd_TestR3DMus-.SPCmds	; $9A | Play Collision Chaos bad future music (sound test)
0000C194 0000                       	dc.w	SPCmd_TestR4AMus-.SPCmds	; $9B | Play Tidal Tempest present music (sound test)
0000C196 0000                       	dc.w	SPCmd_TestR4CMus-.SPCmds	; $9C | Play Tidal Tempest good future music (sound test)
0000C198 0000                       	dc.w	SPCmd_TestR4DMus-.SPCmds	; $9D | Play Tidal Tempest bad future music (sound test)
0000C19A 0000                       	dc.w	SPCmd_TestR5AMus-.SPCmds	; $9E | Play Quartz Quadrant present music (sound test)
0000C19C 0000                       	dc.w	SPCmd_TestR5CMus-.SPCmds	; $9F | Play Quartz Quadrant good future music (sound test)
0000C19E 0000                       	dc.w	SPCmd_TestR5DMus-.SPCmds	; $A0 | Play Quartz Quadrant bad future music (sound test)
0000C1A0 0000                       	dc.w	SPCmd_TestR6AMus-.SPCmds	; $A1 | Play Wacky Workbench present music (sound test)
0000C1A2 0000                       	dc.w	SPCmd_TestR6CMus-.SPCmds	; $A2 | Play Wacky Workbench good future music (sound test)
0000C1A4 0000                       	dc.w	SPCmd_TestR6DMus-.SPCmds	; $A3 | Play Wacky Workbench bad future music (sound test)
0000C1A6 0000                       	dc.w	SPCmd_TestR7AMus-.SPCmds	; $A4 | Play Stardust Speedway present music (sound test)
0000C1A8 0000                       	dc.w	SPCmd_TestR7CMus-.SPCmds	; $A5 | Play Stardust Speedway good future music (sound test)
0000C1AA 0000                       	dc.w	SPCmd_TestR7DMus-.SPCmds	; $A6 | Play Stardust Speedway bad future music (sound test)
0000C1AC 0000                       	dc.w	SPCmd_TestR8AMus-.SPCmds	; $A7 | Play Metallic Madness present music (sound test)
0000C1AE 0000                       	dc.w	SPCmd_TestR8CMus-.SPCmds	; $A8 | Play Metallic Madness good future music (sound test)
0000C1B0 0000                       	dc.w	SPCmd_TestR8DMus-.SPCmds	; $A9 | Play Metallic Madness bad future music (sound test)
0000C1B2 0000                       	dc.w	SPCmd_TestBossMus-.SPCmds	; $AA | Play boss music (sound test)
0000C1B4 0000                       	dc.w	SPCmd_TestFinalMus-.SPCmds	; $AB | Play final boss music (sound test)
0000C1B6 0000                       	dc.w	SPCmd_TestTitleMus-.SPCmds	; $AC | Play title screen music (sound test)
0000C1B8 0000                       	dc.w	SPCmd_TestTimeAtkMus-.SPCmds	; $AD | Play time attack music (sound test)
0000C1BA 0000                       	dc.w	SPCmd_TestLvlEndMus-.SPCmds	; $AE | Play level end music (sound test)
0000C1BC 0000                       	dc.w	SPCmd_TestShoesMus-.SPCmds	; $AF | Play speed shoes music (sound test)
0000C1BE 0000                       	dc.w	SPCmd_TestInvincMus-.SPCmds	; $B0 | Play invincibility music (sound test)
0000C1C0 0000                       	dc.w	SPCmd_TestGameOverMus-.SPCmds	; $B1 | Play game over music (sound test)
0000C1C2 0000                       	dc.w	SPCmd_TestSpecialMus-.SPCmds	; $B2 | Play special stage music (sound test)
0000C1C4 0000                       	dc.w	SPCmd_TestDAGardenMus-.SPCmds	; $B3 | Play D.A. Garden music (sound test)
0000C1C6 0000                       	dc.w	SPCmd_TestProtoWarp-.SPCmds	; $B4 | Play prototype warp sound (sound test)
0000C1C8 0000                       	dc.w	SPCmd_TestIntroMus-.SPCmds	; $B5 | Play opening music (sound test)
0000C1CA 0000                       	dc.w	SPCmd_TestEndingMus-.SPCmds	; $B6 | Play ending music (sound test)
0000C1CC 0000                       	dc.w	SPCmd_TestFutureSFX-.SPCmds	; $B7 | Play "Future" voice clip (sound test)
0000C1CE 0000                       	dc.w	SPCmd_TestPastSFX-.SPCmds	; $B8 | Play "Past" voice clip (sound test)
0000C1D0 0000                       	dc.w	SPCmd_TestAlrightSFX-.SPCmds	; $B9 | Play "Alright" voice clip (sound test)
0000C1D2 0000                       	dc.w	SPCmd_TestGiveUpSFX-.SPCmds	; $BA | Play "I'm outta here" voice clip (sound test)
0000C1D4 0000                       	dc.w	SPCmd_TestYesSFX-.SPCmds	; $BB | Play "Yes" voice clip (sound test)
0000C1D6 0000                       	dc.w	SPCmd_TestYeahSFX-.SPCmds	; $BC | Play "Yeah" voice clip (sound test)
0000C1D8 0000                       	dc.w	SPCmd_TestGiggleSFX-.SPCmds	; $BD | Play Amy giggle voice clip (sound test)
0000C1DA 0000                       	dc.w	SPCmd_TestAmyYelpSFX-.SPCmds	; $BE | Play Amy yelp voice clip (sound test)
0000C1DC 0000                       	dc.w	SPCmd_TestStompSFX-.SPCmds	; $BF | Play boss stomp sound (sound test)
0000C1DE 0000                       	dc.w	SPCmd_TestBumperSFX-.SPCmds	; $C0 | Play bumper sound (sound test)
0000C1E0 0000                       	dc.w	SPCmd_TestR1BMus-.SPCmds	; $C1 | Play Palmtree Panic past music (sound test)
0000C1E2 0000                       	dc.w	SPCmd_TestR3BMus-.SPCmds	; $C2 | Play Collision Chaos past music (sound test)
0000C1E4 0000                       	dc.w	SPCmd_TestR4BMus-.SPCmds	; $C3 | Play Tidal Tempest past music (sound test)
0000C1E6 0000                       	dc.w	SPCmd_TestR5BMus-.SPCmds	; $C4 | Play Quartz Quadrant past music (sound test)
0000C1E8 0000                       	dc.w	SPCmd_TestR6BMus-.SPCmds	; $C5 | Play Palmtree Panic past music (sound test)
0000C1EA 0000                       	dc.w	SPCmd_TestR7BMus-.SPCmds	; $C6 | Play Palmtree Panic past music (sound test)
0000C1EC 0000                       	dc.w	SPCmd_TestR8BMus-.SPCmds	; $C7 | Play Palmtree Panic past music (sound test)
0000C1EE 0000                       	dc.w	SPCmd_LoadFunIsInf-.SPCmds	; $C8 | Load "Fun is infinite" screen
0000C1F0 0000                       	dc.w	SPCmd_LoadStaffCreds-.SPCmds	; $C9 | Load staff credits
0000C1F2 0000                       	dc.w	SPCmd_LoadMCSonic-.SPCmds	; $CA | Load M.C. Sonic screen
0000C1F4 0000                       	dc.w	SPCmd_LoadTails-.SPCmds		; $CB | Load Tails screen
0000C1F6 0000                       	dc.w	SPCmd_LoadBatmanSonic-.SPCmds	; $CC | Load Batman Sonic screen
0000C1F8 0000                       	dc.w	SPCmd_LoadCuteSonic-.SPCmds	; $CD | Load cute Sonic screen
0000C1FA 0000                       	dc.w	SPCmd_LoadStaffTimes-.SPCmds	; $CE | Load best staff times screen
0000C1FC 0000                       	dc.w	SPCmd_LoadDummyFile1-.SPCmds	; $CF | Load dummy file (unused)
0000C1FE 0000                       	dc.w	SPCmd_LoadDummyFile2-.SPCmds	; $D0 | Load dummy file (unused)
0000C200 0000                       	dc.w	SPCmd_LoadDummyFile3-.SPCmds	; $D1 | Load dummy file (unused)
0000C202 0000                       	dc.w	SPCmd_LoadDummyFile4-.SPCmds	; $D2 | Load dummy file (unused)
0000C204 0000                       	dc.w	SPCmd_LoadDummyFile5-.SPCmds	; $D3 | Load dummy file (unused)
0000C206 0000                       	dc.w	SPCmd_LoadPencilTest-.SPCmds	; $D4 | Load pencil test FMV
0000C208 0000                       	dc.w	SPCmd_PauseCDDA-.SPCmds		; $D5 | Pause CDDA music
0000C20A 0000                       	dc.w	SPCmd_UnpauseCDDA-.SPCmds	; $D6 | Unpause CDDA music
0000C20C 0000                       	dc.w	SPCmd_LoadOpening-.SPCmds	; $D7 | Load opening FMV
0000C20E 0000                       	dc.w	SPCmd_LoadCominSoon-.SPCmds	; $D8 | Load "Comin' Soon" screen
0000C210                            .SPCmdsEnd:
0000C210                            
0000C210                            ; -------------------------------------------------------------------------------
0000C210                            ; Load pencil test FMV
0000C210                            ; -------------------------------------------------------------------------------
0000C210                            
0000C210                            SPCmd_LoadPencilTest:
0000C210 08B8 0003 8033             	bclr	#3,GA_INT_MASK+1.w		; Disable timer interrupt
0000C216                            
0000C216 41FA FC4B                  	lea	File_PencilTestMain(pc),a0	; Load Main CPU file
0000C21A 6100 0000                  	bsr.w	WaitWordRAMAccess
0000C21E 43F9 0008 0000             	lea	WORDRAM_2M,a1
0000C224 4EB8 7800                  	jsr	LoadFile.w
0000C228 6100 0000                  	bsr.w	GiveWordRAMAccess
0000C22C                            
0000C22C 41FA FC41                  	lea	File_PencilTestSub(pc),a0	; Load Sub CPU file
0000C230 43F9 0003 0000             	lea	PRG_RAM+$30000,a1
0000C236 4EB8 7800                  	jsr	LoadFile.w
0000C23A                            
0000C23A 4EB9 0003 0000             	jsr	PRG_RAM+$30000			; Run Sub CPU file code
0000C240                            
0000C240 21FC 0000 7700 5F36        	move.l	#SPIRQ2,_USERCALL2+2.w		; Restore IRQ2
0000C248 0238 00FA 8003             	andi.b	#$FA,GA_MEM_MODE+1.w		; Set to 2M mode
0000C24E 11FC 0003 8004             	move.b	#3,GA_CDC_MODE.w		; Set CDC mode to "Sub CPU"
0000C254 21FC 0000 0000 7000        	move.l	#0,curPCMDriver.w		; Reset current PCM driver
0000C25C 4E75                       	rts
0000C25E                            
0000C25E                            ; -------------------------------------------------------------------------------
0000C25E                            ; Load Backup RAM manager
0000C25E                            ; -------------------------------------------------------------------------------
0000C25E                            
0000C25E                            SPCmd_LoadBuRAMMngr:
0000C25E 41FA FB05                  	lea	File_BuRAMMain(pc),a0		; Load Main CPU file
0000C262 6100 0000                  	bsr.w	WaitWordRAMAccess
0000C266 43F9 0008 0000             	lea	WORDRAM_2M,a1
0000C26C 4EB8 7800                  	jsr	LoadFile.w
0000C270 6100 0000                  	bsr.w	GiveWordRAMAccess
0000C274                            
0000C274 41FA FAE1                  	lea	File_BuRAMSub(pc),a0		; Load Sub CPU file
0000C278 43F9 0001 0000             	lea	PRG_RAM+$10000,a1
0000C27E 4EB8 7800                  	jsr	LoadFile.w
0000C282                            
0000C282 4EB9 0001 0000             	jsr	PRG_RAM+$10000			; Run Sub CPU file code
0000C288                            
0000C288 21FC 0000 7700 5F36        	move.l	#SPIRQ2,_USERCALL2+2.w		; Restore IRQ2
0000C290 4E75                       	rts
0000C292                            
0000C292                            ; -------------------------------------------------------------------------------
0000C292                            ; Load "Thank You" screen
0000C292                            ; -------------------------------------------------------------------------------
0000C292                            
0000C292                            SPCmd_LoadThankYou:
0000C292 6100 0000                  	bsr.w	WaitWordRAMAccess		; Load Main CPU file
0000C296 41FA FADC                  	lea	File_ThanksMain(pc),a0
0000C29A 43F9 0008 0000             	lea	WORDRAM_2M,a1
0000C2A0 4EB8 7800                  	jsr	LoadFile.w
0000C2A4                            
0000C2A4 41FA FAEC                  	lea	File_ThanksData(pc),a0		; Load data file
0000C2A8 43F9 0009 0000             	lea	WORDRAM_2M+$10000,a1
0000C2AE 4EB8 7800                  	jsr	LoadFile.w
0000C2B2 6100 0000                  	bsr.w	GiveWordRAMAccess
0000C2B6                            
0000C2B6 41FA FACB                  	lea	File_ThanksSub(pc),a0		; Load Sub CPU file
0000C2BA 43F9 0001 0000             	lea	PRG_RAM+$10000,a1
0000C2C0 4EB8 7800                  	jsr	LoadFile.w
0000C2C4                            
0000C2C4 4EB9 0001 0000             	jsr	PRG_RAM+$10000			; Run Sub CPU file code
0000C2CA                            
0000C2CA 21FC 0000 7700 5F36        	move.l	#SPIRQ2,_USERCALL2+2.w		; Restore IRQ2
0000C2D2 4E75                       	rts
0000C2D4                            
0000C2D4                            ; -------------------------------------------------------------------------------
0000C2D4                            ; Reset special stage flags
0000C2D4                            ; -------------------------------------------------------------------------------
0000C2D4                            
0000C2D4                            SPCmd_ResetSSFlags:
0000C2D4 7000                       	moveq	#0,d0
0000C2D6 11C0 802A                  	move.b	d0,GA_STAT_A.w
0000C2DA 11C0 8023                  	move.b	d0,GA_STAT_3.w
0000C2DE 21C0 8026                  	move.l	d0,GA_STAT_6.w
0000C2E2 31C0 8024                  	move.w	d0,GA_STAT_4.w
0000C2E6 6000 0000                  	bra.w	SPCmdFinish
0000C2EA                            
0000C2EA                            ; -------------------------------------------------------------------------------
0000C2EA                            ; Reset special stage flags
0000C2EA                            ; -------------------------------------------------------------------------------
0000C2EA                            
0000C2EA                            SPCmd_ResetSSFlags2:
0000C2EA 7000                       	moveq	#0,d0
0000C2EC 11C0 802A                  	move.b	d0,GA_STAT_A.w
0000C2F0 11C0 8023                  	move.b	d0,GA_STAT_3.w
0000C2F4 21C0 8026                  	move.l	d0,GA_STAT_6.w
0000C2F8 31C0 8024                  	move.w	d0,GA_STAT_4.w
0000C2FC 6000 0000                  	bra.w	SPCmdFinish
0000C300                            
0000C300                            ; -------------------------------------------------------------------------------
0000C300                            ; Load Backup RAM initialization
0000C300                            ; -------------------------------------------------------------------------------
0000C300                            
0000C300                            SPCmd_LoadBuRAMInit:
0000C300 41FA FA46                  	lea	File_BuRAMInit(pc),a0		; Load Main CPU file
0000C304 6100 0000                  	bsr.w	WaitWordRAMAccess
0000C308 43F9 0008 0000             	lea	WORDRAM_2M,a1
0000C30E 4EB8 7800                  	jsr	LoadFile.w
0000C312 6100 0000                  	bsr.w	GiveWordRAMAccess
0000C316                            
0000C316 41FA FA3F                  	lea	File_BuRAMSub(pc),a0		; Load Sub CPU file
0000C31A 43F9 0001 0000             	lea	PRG_RAM+$10000,a1
0000C320 4EB8 7800                  	jsr	LoadFile.w
0000C324                            
0000C324 4EB9 0001 0000             	jsr	PRG_RAM+$10000			; Run Sub CPU file code
0000C32A                            
0000C32A 21FC 0000 7700 5F36        	move.l	#SPIRQ2,_USERCALL2+2.w		; Restore IRQ2
0000C332 4E75                       	rts
0000C334                            
0000C334                            ; -------------------------------------------------------------------------------
0000C334                            ; Read save data
0000C334                            ; -------------------------------------------------------------------------------
0000C334                            
0000C334                            SPCmd_ReadSaveData:
0000C334 41FA 0000                  	lea	BuRAMScratch(pc),a0		; Initialize Backup RAM interaction
0000C338 43FA 0000                  	lea	BuRAMStrings(pc),a1
0000C33C 303C 0000                  	move.w	#BRMINIT,d0
0000C340 4EB8 5F16                  	jsr	_BURAM.w
0000C344                            
0000C344                            .ReadData:
0000C344 6100 0000                  	bsr.w	WaitWordRAMAccess		; Wait for Word RAM access
0000C348                            
0000C348 41FA FB4E                  	lea	BuRAMReadParams(pc),a0		; Load save data
0000C34C 43F9 0008 0000             	lea	WORDRAM_2M,a1
0000C352 303C 0003                  	move.w	#BRMREAD,d0
0000C356 4EB8 5F16                  	jsr	_BURAM.w
0000C35A 65E8                       	bcs.s	.ReadData			; If it failed, try again
0000C35C                            
0000C35C 6000 0000                  	bra.w	GiveWordRAMAccess		; Give Main CPU Word RAM access
0000C360                            
0000C360                            ; -------------------------------------------------------------------------------
0000C360                            ; Write save data
0000C360                            ; -------------------------------------------------------------------------------
0000C360                            
0000C360                            SPCmd_WriteSaveData:
0000C360 41FA 0000                  	lea	BuRAMScratch(pc),a0		; Initialize Backup RAM interaction
0000C364 43FA 0000                  	lea	BuRAMStrings(pc),a1
0000C368 303C 0000                  	move.w	#BRMINIT,d0
0000C36C 4EB8 5F16                  	jsr	_BURAM.w
0000C370                            
0000C370                            .WriteData:
0000C370 6100 0000                  	bsr.w	WaitWordRAMAccess		; Wait for Word RAM access
0000C374                            
0000C374 41FA FB2E                  	lea	BuRAMWriteParams(pc),a0		; Write save data
0000C378 43F9 0008 0000             	lea	WORDRAM_2M,a1
0000C37E 303C 0004                  	move.w	#BRMWRITE,d0
0000C382 7200                       	moveq	#0,d1
0000C384 4EB8 5F16                  	jsr	_BURAM.w
0000C388 65E6                       	bcs.s	.WriteData			; If it failed, try again
0000C38A                            	
0000C38A 6000 0000                  	bra.w	GiveWordRAMAccess		; Give Main CPU Word RAM access
0000C38E                            
0000C38E                            ; -------------------------------------------------------------------------------
0000C38E                            ; Read temporary save data
0000C38E                            ; -------------------------------------------------------------------------------
0000C38E                            
0000C38E                            SPCmd_ReadTempSaveData:
0000C38E 6100 0000                  	bsr.w	WaitWordRAMAccess		; Wait for Word RAM access
0000C392                            
0000C392 41F8 7400                  	lea	SaveDataTemp.w,a0		; Copy from temporary save data buffer
0000C396 43F9 0008 0000             	lea	WORDRAM_2M,a1
0000C39C 3E3C 00AF                  	move.w	#BURAM_DATA_LEN/4-1,d7
0000C3A0                            
0000C3A0                            .Read:
0000C3A0 22D8                       	move.l	(a0)+,(a1)+
0000C3A2 51CF FFFC                  	dbf	d7,.Read
0000C3A6                            
0000C3A6 6000 0000                  	bra.w	GiveWordRAMAccess		; Give Main CPU Word RAM access
0000C3AA                            
0000C3AA                            ; -------------------------------------------------------------------------------
0000C3AA                            ; Write temporary save data
0000C3AA                            ; -------------------------------------------------------------------------------
0000C3AA                            
0000C3AA                            SPCmd_WriteTempSaveData:
0000C3AA 6100 0000                  	bsr.w	WaitWordRAMAccess		; Wait for Word RAM access
0000C3AE                            
0000C3AE 41F8 7400                  	lea	SaveDataTemp.w,a0		; Copy to temporary save data buffer
0000C3B2 43F9 0008 0000             	lea	WORDRAM_2M,a1
0000C3B8 3E3C 00AF                  	move.w	#BURAM_DATA_LEN/4-1,d7
0000C3BC                            
0000C3BC                            .Write:
0000C3BC 20D9                       	move.l	(a1)+,(a0)+
0000C3BE 51CF FFFC                  	dbf	d7,.Write
0000C3C2                            
0000C3C2 6000 0000                  	bra.w	GiveWordRAMAccess		; Give Main CPU Word RAM access
0000C3C6                            
0000C3C6                            ; -------------------------------------------------------------------------------
0000C3C6                            ; Load level
0000C3C6                            ; -------------------------------------------------------------------------------
0000C3C6                            
0000C3C6                            SPCmd_LoadLevel:
0000C3C6 D241                       	add.w	d1,d1				; Get level file based on command ID
0000C3C8 43FA 0000                  	lea	.LevelFiles(pc),a1
0000C3CC 3431 1000                  	move.w	(a1,d1.w),d2
0000C3D0 41F1 2000                  	lea	(a1,d2.w),a0
0000C3D4 2F01                       	move.l	d1,-(sp)
0000C3D6                            
0000C3D6 6100 0000                  	bsr.w	WaitWordRAMAccess		; Load level file
0000C3DA 43F9 0008 0000             	lea	WORDRAM_2M,a1
0000C3E0 4EB8 7800                  	jsr	LoadFile.w
0000C3E4                            
0000C3E4 6100 0000                  	bsr.w	ResetCDDAVol			; Reset CDDA music volume
0000C3E8 08B8 0003 8033             	bclr	#3,GA_INT_MASK+1.w		; Disable timer interrupt
0000C3EE                            
0000C3EE 221F                       	move.l	(sp)+,d1			; Get PCM driver file based on command ID
0000C3F0 D241                       	add.w	d1,d1
0000C3F2 43FA 0000                  	lea	.PCMDrivers(pc),a1
0000C3F6 2038 7000                  	move.l	curPCMDriver.w,d0
0000C3FA B0B1 1000                  	cmp.l	(a1,d1.w),d0			; Is this PCM driver already loaded?
0000C3FE 6700                       	beq.s	.Done				; If so, branch
0000C400                            
0000C400 2071 1000                  	movea.l	(a1,d1.w),a0			; If not, load it
0000C404 21C8 7000                  	move.l	a0,curPCMDriver.w
0000C408 43F9 0004 0000             	lea	PCMDriver,a1
0000C40E 4EB8 7800                  	jsr	LoadFile.w
0000C412                            
0000C412                            .Done:
0000C412 08F8 0003 8033             	bset	#3,GA_INT_MASK+1.w		; Enable timer interrupt
0000C418 6000 0000                  	bra.w	GiveWordRAMAccess		; Give Main CPU Word RAM access
0000C41C                            
0000C41C                            ; -------------------------------------------------------------------------------
0000C41C                            ; Level files
0000C41C                            ; -------------------------------------------------------------------------------
0000C41C                            
0000C41C                            .LevelFiles:
0000C41C F3E4                       	dc.w	File_R11A-.LevelFiles		; $00 | Invalid
0000C41E F3E4                       	dc.w	File_R11A-.LevelFiles		; $01 | Palmtree Panic Act 1 present
0000C420 F3F1                       	dc.w	File_R11B-.LevelFiles		; $02 | Palmtree Panic Act 1 past
0000C422 F3FE                       	dc.w	File_R11C-.LevelFiles		; $03 | Palmtree Panic Act 1 good future
0000C424 F40B                       	dc.w	File_R11D-.LevelFiles		; $04 | Palmtree Panic Act 1 bad future
0000C426 F3E4                       	dc.w	File_R11A-.LevelFiles		; $05 | Invalid
0000C428 F3E4                       	dc.w	File_R11A-.LevelFiles		; $06 | Invalid
0000C42A F43F                       	dc.w	File_R12A-.LevelFiles		; $07 | Palmtree Panic Act 2 present
0000C42C F44C                       	dc.w	File_R12B-.LevelFiles		; $08 | Palmtree Panic Act 2 past
0000C42E F459                       	dc.w	File_R12C-.LevelFiles		; $09 | Palmtree Panic Act 2 good future
0000C430 F466                       	dc.w	File_R12D-.LevelFiles		; $0A | Palmtree Panic Act 2 bad future
0000C432 F3E4                       	dc.w	File_R11A-.LevelFiles		; $0B | Invalid
0000C434 F3E4                       	dc.w	File_R11A-.LevelFiles		; $0C | Invalid
0000C436 F3E4                       	dc.w	File_R11A-.LevelFiles		; $0D | Invalid
0000C438 F3E4                       	dc.w	File_R11A-.LevelFiles		; $0E | Invalid
0000C43A F3E4                       	dc.w	File_R11A-.LevelFiles		; $0F | Invalid
0000C43C F3E4                       	dc.w	File_R11A-.LevelFiles		; $10 | Invalid
0000C43E F3E4                       	dc.w	File_R11A-.LevelFiles		; $11 | Invalid
0000C440 F3E4                       	dc.w	File_R11A-.LevelFiles		; $12 | Invalid
0000C442 F3E4                       	dc.w	File_R11A-.LevelFiles		; $13 | Invalid
0000C444 F3E4                       	dc.w	File_R11A-.LevelFiles		; $14 | Invalid
0000C446 F3E4                       	dc.w	File_R11A-.LevelFiles		; $15 | Invalid
0000C448 F3E4                       	dc.w	File_R11A-.LevelFiles		; $16 | Invalid
0000C44A F3E4                       	dc.w	File_R11A-.LevelFiles		; $17 | Invalid
0000C44C F3E4                       	dc.w	File_R11A-.LevelFiles		; $18 | Invalid
0000C44E F3E4                       	dc.w	File_R11A-.LevelFiles		; $19 | Invalid
0000C450 F3E4                       	dc.w	File_R11A-.LevelFiles		; $1A | Invalid
0000C452 F3E4                       	dc.w	File_R11A-.LevelFiles		; $1B | Invalid
0000C454 F3E4                       	dc.w	File_R11A-.LevelFiles		; $1C | Invalid
0000C456 F3E4                       	dc.w	File_R11A-.LevelFiles		; $1D | Invalid
0000C458 F3E4                       	dc.w	File_R11A-.LevelFiles		; $1E | Invalid
0000C45A F3E4                       	dc.w	File_R11A-.LevelFiles		; $1F | Invalid
0000C45C F3E4                       	dc.w	File_R11A-.LevelFiles		; $20 | Invalid
0000C45E F3E4                       	dc.w	File_R11A-.LevelFiles		; $21 | Invalid
0000C460 F3E4                       	dc.w	File_R11A-.LevelFiles		; $22 | Invalid
0000C462 F3E4                       	dc.w	File_R11A-.LevelFiles		; $23 | Invalid
0000C464 FA5F                       	dc.w	File_Demo43C-.LevelFiles	; $24 | Tidal Tempest Act 3 good future demo
0000C466 FA6D                       	dc.w	File_Demo82A-.LevelFiles	; $25 | Metallic Madness Act 2 present demo
0000C468 F3E4                       	dc.w	File_R11A-.LevelFiles		; $26 | Invalid
0000C46A F3E4                       	dc.w	File_R11A-.LevelFiles		; $27 | Invalid
0000C46C F53B                       	dc.w	File_R31A-.LevelFiles		; $28 | Collision Chaos Act 1 present
0000C46E F548                       	dc.w	File_R31B-.LevelFiles		; $29 | Collision Chaos Act 1 past
0000C470 F555                       	dc.w	File_R31C-.LevelFiles		; $2A | Collision Chaos Act 1 good future
0000C472 F562                       	dc.w	File_R31D-.LevelFiles		; $2B | Collision Chaos Act 1 bad future
0000C474 F56F                       	dc.w	File_R32A-.LevelFiles		; $2C | Collision Chaos Act 2 present 
0000C476 F57C                       	dc.w	File_R32B-.LevelFiles		; $2D | Collision Chaos Act 2 past 
0000C478 F589                       	dc.w	File_R32C-.LevelFiles		; $2E | Collision Chaos Act 2 good future 
0000C47A F596                       	dc.w	File_R32D-.LevelFiles		; $2F | Collision Chaos Act 2 bad future 
0000C47C F5A3                       	dc.w	File_R33C-.LevelFiles		; $30 | Collision Chaos Act 3 good future 
0000C47E F5B0                       	dc.w	File_R33D-.LevelFiles		; $31 | Collision Chaos Act 3 bad future 
0000C480 F5BD                       	dc.w	File_R13C-.LevelFiles		; $32 | Palmtree Panic Act 3 good future
0000C482 F5CA                       	dc.w	File_R13D-.LevelFiles		; $33 | Palmtree Panic Act 3 bad future 
0000C484 F5D7                       	dc.w	File_R41A-.LevelFiles		; $34 | Tidal Tempest Act 1 present
0000C486 F5E4                       	dc.w	File_R41B-.LevelFiles		; $35 | Tidal Tempest Act 1 past
0000C488 F5F1                       	dc.w	File_R41C-.LevelFiles		; $36 | Tidal Tempest Act 1 good future
0000C48A F5FE                       	dc.w	File_R41D-.LevelFiles		; $37 | Tidal Tempest Act 1 bad future
0000C48C F60B                       	dc.w	File_R42A-.LevelFiles		; $38 | Tidal Tempest Act 2 present 
0000C48E F618                       	dc.w	File_R42B-.LevelFiles		; $39 | Tidal Tempest Act 2 past 
0000C490 F625                       	dc.w	File_R42C-.LevelFiles		; $3A | Tidal Tempest Act 2 good future 
0000C492 F632                       	dc.w	File_R42D-.LevelFiles		; $3B | Tidal Tempest Act 2 bad future 
0000C494 F63F                       	dc.w	File_R43C-.LevelFiles		; $3C | Tidal Tempest Act 3 good future 
0000C496 F64C                       	dc.w	File_R43D-.LevelFiles		; $3D | Tidal Tempest Act 3 bad future 
0000C498 F659                       	dc.w	File_R51A-.LevelFiles		; $3E | Quartz Quadrant Act 1 present
0000C49A F666                       	dc.w	File_R51B-.LevelFiles		; $3F | Quartz Quadrant Act 1 past
0000C49C F673                       	dc.w	File_R51C-.LevelFiles		; $40 | Quartz Quadrant Act 1 good future
0000C49E F680                       	dc.w	File_R51D-.LevelFiles		; $41 | Quartz Quadrant Act 1 bad future
0000C4A0 F68D                       	dc.w	File_R52A-.LevelFiles		; $42 | Quartz Quadrant Act 2 present 
0000C4A2 F69A                       	dc.w	File_R52B-.LevelFiles		; $43 | Quartz Quadrant Act 2 past 
0000C4A4 F6A7                       	dc.w	File_R52C-.LevelFiles		; $44 | Quartz Quadrant Act 2 good future 
0000C4A6 F6B4                       	dc.w	File_R52D-.LevelFiles		; $45 | Quartz Quadrant Act 2 bad future 
0000C4A8 F6C1                       	dc.w	File_R53C-.LevelFiles		; $46 | Quartz Quadrant Act 3 good future 
0000C4AA F6CE                       	dc.w	File_R53D-.LevelFiles		; $47 | Quartz Quadrant Act 3 bad future 
0000C4AC F6DB                       	dc.w	File_R61A-.LevelFiles		; $48 | Wacky Workbench Act 1 present
0000C4AE F6E8                       	dc.w	File_R61B-.LevelFiles		; $49 | Wacky Workbench Act 1 past
0000C4B0 F6F5                       	dc.w	File_R61C-.LevelFiles		; $4A | Wacky Workbench Act 1 good future
0000C4B2 F702                       	dc.w	File_R61D-.LevelFiles		; $4B | Wacky Workbench Act 1 bad future
0000C4B4 F70F                       	dc.w	File_R62A-.LevelFiles		; $4C | Wacky Workbench Act 2 present 
0000C4B6 F71C                       	dc.w	File_R62B-.LevelFiles		; $4D | Wacky Workbench Act 2 past 
0000C4B8 F729                       	dc.w	File_R62C-.LevelFiles		; $4E | Wacky Workbench Act 2 good future 
0000C4BA F736                       	dc.w	File_R62D-.LevelFiles		; $4F | Wacky Workbench Act 2 bad future 
0000C4BC F743                       	dc.w	File_R63C-.LevelFiles		; $50 | Wacky Workbench Act 3 good future 
0000C4BE F750                       	dc.w	File_R63D-.LevelFiles		; $51 | Wacky Workbench Act 3 bad future 
0000C4C0 F75D                       	dc.w	File_R71A-.LevelFiles		; $52 | Stardust Speedway Act 1 present
0000C4C2 F76A                       	dc.w	File_R71B-.LevelFiles		; $53 | Stardust Speedway Act 1 past
0000C4C4 F777                       	dc.w	File_R71C-.LevelFiles		; $54 | Stardust Speedway Act 1 good future
0000C4C6 F784                       	dc.w	File_R71D-.LevelFiles		; $55 | Stardust Speedway Act 1 bad future
0000C4C8 F791                       	dc.w	File_R72A-.LevelFiles		; $56 | Stardust Speedway Act 2 present 
0000C4CA F79E                       	dc.w	File_R72B-.LevelFiles		; $57 | Stardust Speedway Act 2 past 
0000C4CC F7AB                       	dc.w	File_R72C-.LevelFiles		; $58 | Stardust Speedway Act 2 good future 
0000C4CE F7B8                       	dc.w	File_R72D-.LevelFiles		; $59 | Stardust Speedway Act 2 bad future 
0000C4D0 F7C5                       	dc.w	File_R73C-.LevelFiles		; $5A | Stardust Speedway Act 3 good future 
0000C4D2 F7D2                       	dc.w	File_R73D-.LevelFiles		; $5B | Stardust Speedway Act 3 bad future 
0000C4D4 F7DF                       	dc.w	File_R81A-.LevelFiles		; $5C | Metallic Madness Act 1 present
0000C4D6 F7EC                       	dc.w	File_R81B-.LevelFiles		; $5D | Metallic Madness Act 1 past
0000C4D8 F7F9                       	dc.w	File_R81C-.LevelFiles		; $5E | Metallic Madness Act 1 good future
0000C4DA F806                       	dc.w	File_R81D-.LevelFiles		; $5F | Metallic Madness Act 1 bad future
0000C4DC F813                       	dc.w	File_R82A-.LevelFiles		; $60 | Metallic Madness Act 2 present 
0000C4DE F820                       	dc.w	File_R82B-.LevelFiles		; $61 | Metallic Madness Act 2 past 
0000C4E0 F82D                       	dc.w	File_R82C-.LevelFiles		; $62 | Metallic Madness Act 2 good future 
0000C4E2 F83A                       	dc.w	File_R82D-.LevelFiles		; $63 | Metallic Madness Act 2 bad future 
0000C4E4 F847                       	dc.w	File_R83C-.LevelFiles		; $64 | Metallic Madness Act 3 good future 
0000C4E6 F854                       	dc.w	File_R83D-.LevelFiles		; $65 | Metallic Madness Act 3 bad future 
0000C4E8 F3E4                       	dc.w	File_R11A-.LevelFiles		; $66 | Invalid
0000C4EA F3E4                       	dc.w	File_R11A-.LevelFiles		; $67 | Invalid
0000C4EC F3E4                       	dc.w	File_R11A-.LevelFiles		; $68 | Invalid
0000C4EE F3E4                       	dc.w	File_R11A-.LevelFiles		; $69 | Invalid
0000C4F0 F3E4                       	dc.w	File_R11A-.LevelFiles		; $6A | Invalid
0000C4F2 F3E4                       	dc.w	File_R11A-.LevelFiles		; $6B | Invalid
0000C4F4 F3E4                       	dc.w	File_R11A-.LevelFiles		; $6C | Invalid
0000C4F6 F3E4                       	dc.w	File_R11A-.LevelFiles		; $6D | Invalid
0000C4F8 F3E4                       	dc.w	File_R11A-.LevelFiles		; $6E | Invalid
0000C4FA F3E4                       	dc.w	File_R11A-.LevelFiles		; $6F | Invalid
0000C4FC F3E4                       	dc.w	File_R11A-.LevelFiles		; $70 | Invalid
0000C4FE F3E4                       	dc.w	File_R11A-.LevelFiles		; $71 | Invalid
0000C500 F3E4                       	dc.w	File_R11A-.LevelFiles		; $72 | Invalid
0000C502 F3E4                       	dc.w	File_R11A-.LevelFiles		; $73 | Invalid
0000C504 F3E4                       	dc.w	File_R11A-.LevelFiles		; $74 | Invalid
0000C506 F3E4                       	dc.w	File_R11A-.LevelFiles		; $75 | Invalid
0000C508 F3E4                       	dc.w	File_R11A-.LevelFiles		; $76 | Invalid
0000C50A F3E4                       	dc.w	File_R11A-.LevelFiles		; $77 | Invalid
0000C50C F3E4                       	dc.w	File_R11A-.LevelFiles		; $78 | Invalid
0000C50E F3E4                       	dc.w	File_R11A-.LevelFiles		; $79 | Invalid
0000C510 F3E4                       	dc.w	File_R11A-.LevelFiles		; $7A | Invalid
0000C512 F3E4                       	dc.w	File_R11A-.LevelFiles		; $7B | Invalid
0000C514 F3E4                       	dc.w	File_R11A-.LevelFiles		; $7C | Invalid
0000C516 F3E4                       	dc.w	File_R11A-.LevelFiles		; $7D | Invalid
0000C518 F3E4                       	dc.w	File_R11A-.LevelFiles		; $7E | Invalid
0000C51A F3E4                       	dc.w	File_R11A-.LevelFiles		; $7F | Invalid
0000C51C F3E4                       	dc.w	File_R11A-.LevelFiles		; $80 | Invalid
0000C51E F3E4                       	dc.w	File_R11A-.LevelFiles		; $81 | Invalid
0000C520 F3E4                       	dc.w	File_R11A-.LevelFiles		; $82 | Invalid
0000C522 F3E4                       	dc.w	File_R11A-.LevelFiles		; $83 | Invalid
0000C524 F911                       	dc.w	File_Demo11A-.LevelFiles	; $84 | Palmtree Panic Act 1 present demo
0000C526 F3E4                       	dc.w	File_R11A-.LevelFiles		; $85 | Invalid
0000C528 F3E4                       	dc.w	File_R11A-.LevelFiles		; $86 | Invalid
0000C52A F3E4                       	dc.w	File_R11A-.LevelFiles		; $87 | Invalid
0000C52C F3E4                       	dc.w	File_R11A-.LevelFiles		; $88 | Invalid
0000C52E F3E4                       	dc.w	File_R11A-.LevelFiles		; $89 | Invalid
0000C530 F3E4                       	dc.w	File_R11A-.LevelFiles		; $8A | Invalid
0000C532 F3E4                       	dc.w	File_R11A-.LevelFiles		; $8B | Invalid
0000C534 F3E4                       	dc.w	File_R11A-.LevelFiles		; $8C | Invalid
0000C536 F3E4                       	dc.w	File_R11A-.LevelFiles		; $8D | Invalid
0000C538 F3E4                       	dc.w	File_R11A-.LevelFiles		; $8E | Invalid
0000C53A F3E4                       	dc.w	File_R11A-.LevelFiles		; $8F | Invalid
0000C53C F3E4                       	dc.w	File_R11A-.LevelFiles		; $90 | Invalid
0000C53E F3E4                       	dc.w	File_R11A-.LevelFiles		; $91 | Invalid
0000C540 F3E4                       	dc.w	File_R11A-.LevelFiles		; $92 | Invalid
0000C542 F3E4                       	dc.w	File_R11A-.LevelFiles		; $93 | Invalid
0000C544 F3E4                       	dc.w	File_R11A-.LevelFiles		; $94 | Invalid
0000C546 F3E4                       	dc.w	File_R11A-.LevelFiles		; $95 | Invalid
0000C548                            
0000C548                            ; -------------------------------------------------------------------------------
0000C548                            ; PCM drivers
0000C548                            ; -------------------------------------------------------------------------------
0000C548                            
0000C548                            .PCMDrivers:
0000C548 0000 B800                  	dc.l	File_R11A			; $00 | Invalid
0000C54C 0000 BC97                  	dc.l	File_R1PCM			; $01 | Palmtree Panic Act 1 present
0000C550 0000 BC97                  	dc.l	File_R1PCM			; $02 | Palmtree Panic Act 1 past
0000C554 0000 BC97                  	dc.l	File_R1PCM			; $03 | Palmtree Panic Act 1 good future
0000C558 0000 BC97                  	dc.l	File_R1PCM			; $04 | Palmtree Panic Act 1 bad future
0000C55C 0000 B800                  	dc.l	File_R11A			; $05 | Invalid
0000C560 0000 B800                  	dc.l	File_R11A			; $06 | Invalid
0000C564 0000 BC97                  	dc.l	File_R1PCM			; $07 | Palmtree Panic Act 2 present
0000C568 0000 BC97                  	dc.l	File_R1PCM			; $08 | Palmtree Panic Act 2 past
0000C56C 0000 BC97                  	dc.l	File_R1PCM			; $09 | Palmtree Panic Act 2 good future
0000C570 0000 BC97                  	dc.l	File_R1PCM			; $0A | Palmtree Panic Act 2 bad future
0000C574 0000 B800                  	dc.l	File_R11A			; $0B | Invalid
0000C578 0000 B800                  	dc.l	File_R11A			; $0C | Invalid
0000C57C 0000 B800                  	dc.l	File_R11A			; $0D | Invalid
0000C580 0000 B800                  	dc.l	File_R11A			; $0E | Invalid
0000C584 0000 B800                  	dc.l	File_R11A			; $0F | Invalid
0000C588 0000 B800                  	dc.l	File_R11A			; $10 | Invalid
0000C58C 0000 B800                  	dc.l	File_R11A			; $11 | Invalid
0000C590 0000 B800                  	dc.l	File_R11A			; $12 | Invalid
0000C594 0000 B800                  	dc.l	File_R11A			; $13 | Invalid
0000C598 0000 B800                  	dc.l	File_R11A			; $14 | Invalid
0000C59C 0000 B800                  	dc.l	File_R11A			; $15 | Invalid
0000C5A0 0000 B800                  	dc.l	File_R11A			; $16 | Invalid
0000C5A4 0000 B800                  	dc.l	File_R11A			; $17 | Invalid
0000C5A8 0000 B800                  	dc.l	File_R11A			; $18 | Invalid
0000C5AC 0000 B800                  	dc.l	File_R11A			; $19 | Invalid
0000C5B0 0000 B800                  	dc.l	File_R11A			; $1A | Invalid
0000C5B4 0000 B800                  	dc.l	File_R11A			; $1B | Invalid
0000C5B8 0000 B800                  	dc.l	File_R11A			; $1C | Invalid
0000C5BC 0000 B800                  	dc.l	File_R11A			; $1D | Invalid
0000C5C0 0000 B800                  	dc.l	File_R11A			; $1E | Invalid
0000C5C4 0000 B800                  	dc.l	File_R11A			; $1F | Invalid
0000C5C8 0000 B800                  	dc.l	File_R11A			; $20 | Invalid
0000C5CC 0000 B800                  	dc.l	File_R11A			; $21 | Invalid
0000C5D0 0000 B800                  	dc.l	File_R11A			; $22 | Invalid
0000C5D4 0000 B800                  	dc.l	File_R11A			; $23 | Invalid
0000C5D8 0000 BD00                  	dc.l	File_BossPCM			; $24 | Tidal Tempest Act 3 good future demo
0000C5DC 0000 BCF1                  	dc.l	File_R8PCM			; $25 | Metallic Madness Act 2 present demo
0000C5E0 0000 B800                  	dc.l	File_R11A			; $26 | Invalid
0000C5E4 0000 B800                  	dc.l	File_R11A			; $27 | Invalid
0000C5E8 0000 BCA6                  	dc.l	File_R3PCM			; $28 | Collision Chaos Act 1 present
0000C5EC 0000 BCA6                  	dc.l	File_R3PCM			; $29 | Collision Chaos Act 1 past
0000C5F0 0000 BCA6                  	dc.l	File_R3PCM			; $2A | Collision Chaos Act 1 good future
0000C5F4 0000 BCA6                  	dc.l	File_R3PCM			; $2B | Collision Chaos Act 1 bad future
0000C5F8 0000 BCA6                  	dc.l	File_R3PCM			; $2C | Collision Chaos Act 2 present 
0000C5FC 0000 BCA6                  	dc.l	File_R3PCM			; $2D | Collision Chaos Act 2 past 
0000C600 0000 BCA6                  	dc.l	File_R3PCM			; $2E | Collision Chaos Act 2 good future 
0000C604 0000 BCA6                  	dc.l	File_R3PCM			; $2F | Collision Chaos Act 2 bad future 
0000C608 0000 BCA6                  	dc.l	File_R3PCM			; $30 | Collision Chaos Act 3 good future 
0000C60C 0000 BCA6                  	dc.l	File_R3PCM			; $31 | Collision Chaos Act 3 bad future 
0000C610 0000 BD00                  	dc.l	File_BossPCM			; $32 | Palmtree Panic Act 3 good future
0000C614 0000 BD00                  	dc.l	File_BossPCM			; $33 | Palmtree Panic Act 3 bad future 
0000C618 0000 BCB5                  	dc.l	File_R4PCM			; $34 | Tidal Tempest Act 1 present
0000C61C 0000 BCB5                  	dc.l	File_R4PCM			; $35 | Tidal Tempest Act 1 past
0000C620 0000 BCB5                  	dc.l	File_R4PCM			; $36 | Tidal Tempest Act 1 good future
0000C624 0000 BCB5                  	dc.l	File_R4PCM			; $37 | Tidal Tempest Act 1 bad future
0000C628 0000 BCB5                  	dc.l	File_R4PCM			; $38 | Tidal Tempest Act 2 present 
0000C62C 0000 BCB5                  	dc.l	File_R4PCM			; $39 | Tidal Tempest Act 2 past 
0000C630 0000 BCB5                  	dc.l	File_R4PCM			; $3A | Tidal Tempest Act 2 good future 
0000C634 0000 BCB5                  	dc.l	File_R4PCM			; $3B | Tidal Tempest Act 2 bad future 
0000C638 0000 BD00                  	dc.l	File_BossPCM			; $3C | Tidal Tempest Act 3 good future 
0000C63C 0000 BD00                  	dc.l	File_BossPCM			; $3D | Tidal Tempest Act 3 bad future 
0000C640 0000 BCC4                  	dc.l	File_R5PCM			; $3E | Quartz Quadrant Act 1 present
0000C644 0000 BCC4                  	dc.l	File_R5PCM			; $3F | Quartz Quadrant Act 1 past
0000C648 0000 BCC4                  	dc.l	File_R5PCM			; $40 | Quartz Quadrant Act 1 good future
0000C64C 0000 BCC4                  	dc.l	File_R5PCM			; $41 | Quartz Quadrant Act 1 bad future
0000C650 0000 BCC4                  	dc.l	File_R5PCM			; $42 | Quartz Quadrant Act 2 present 
0000C654 0000 BCC4                  	dc.l	File_R5PCM			; $43 | Quartz Quadrant Act 2 past 
0000C658 0000 BCC4                  	dc.l	File_R5PCM			; $44 | Quartz Quadrant Act 2 good future 
0000C65C 0000 BCC4                  	dc.l	File_R5PCM			; $45 | Quartz Quadrant Act 2 bad future 
0000C660 0000 BD00                  	dc.l	File_BossPCM			; $46 | Quartz Quadrant Act 3 good future 
0000C664 0000 BD00                  	dc.l	File_BossPCM			; $47 | Quartz Quadrant Act 3 bad future 
0000C668 0000 BCD3                  	dc.l	File_R6PCM			; $48 | Wacky Workbench Act 1 present
0000C66C 0000 BCD3                  	dc.l	File_R6PCM			; $49 | Wacky Workbench Act 1 past
0000C670 0000 BCD3                  	dc.l	File_R6PCM			; $4A | Wacky Workbench Act 1 good future
0000C674 0000 BCD3                  	dc.l	File_R6PCM			; $4B | Wacky Workbench Act 1 bad future
0000C678 0000 BCD3                  	dc.l	File_R6PCM			; $4C | Wacky Workbench Act 2 present 
0000C67C 0000 BCD3                  	dc.l	File_R6PCM			; $4D | Wacky Workbench Act 2 past 
0000C680 0000 BCD3                  	dc.l	File_R6PCM			; $4E | Wacky Workbench Act 2 good future 
0000C684 0000 BCD3                  	dc.l	File_R6PCM			; $4F | Wacky Workbench Act 2 bad future 
0000C688 0000 BD00                  	dc.l	File_BossPCM			; $50 | Wacky Workbench Act 3 good future 
0000C68C 0000 BD00                  	dc.l	File_BossPCM			; $51 | Wacky Workbench Act 3 bad future 
0000C690 0000 BCE2                  	dc.l	File_R7PCM			; $52 | Stardust Speedway Act 1 present
0000C694 0000 BCE2                  	dc.l	File_R7PCM			; $53 | Stardust Speedway Act 1 past
0000C698 0000 BCE2                  	dc.l	File_R7PCM			; $54 | Stardust Speedway Act 1 good future
0000C69C 0000 BCE2                  	dc.l	File_R7PCM			; $55 | Stardust Speedway Act 1 bad future
0000C6A0 0000 BCE2                  	dc.l	File_R7PCM			; $56 | Stardust Speedway Act 2 present 
0000C6A4 0000 BCE2                  	dc.l	File_R7PCM			; $57 | Stardust Speedway Act 2 past 
0000C6A8 0000 BCE2                  	dc.l	File_R7PCM			; $58 | Stardust Speedway Act 2 good future 
0000C6AC 0000 BCE2                  	dc.l	File_R7PCM			; $59 | Stardust Speedway Act 2 bad future 
0000C6B0 0000 BD00                  	dc.l	File_BossPCM			; $5A | Stardust Speedway Act 3 good future 
0000C6B4 0000 BD00                  	dc.l	File_BossPCM			; $5B | Stardust Speedway Act 3 bad future 
0000C6B8 0000 BCF1                  	dc.l	File_R8PCM			; $5C | Metallic Madness Act 1 present
0000C6BC 0000 BCF1                  	dc.l	File_R8PCM			; $5D | Metallic Madness Act 1 past
0000C6C0 0000 BCF1                  	dc.l	File_R8PCM			; $5E | Metallic Madness Act 1 good future
0000C6C4 0000 BCF1                  	dc.l	File_R8PCM			; $5F | Metallic Madness Act 1 bad future
0000C6C8 0000 BCF1                  	dc.l	File_R8PCM			; $60 | Metallic Madness Act 2 present 
0000C6CC 0000 BCF1                  	dc.l	File_R8PCM			; $61 | Metallic Madness Act 2 past 
0000C6D0 0000 BCF1                  	dc.l	File_R8PCM			; $62 | Metallic Madness Act 2 good future 
0000C6D4 0000 BCF1                  	dc.l	File_R8PCM			; $63 | Metallic Madness Act 2 bad future 
0000C6D8 0000 BD00                  	dc.l	File_BossPCM			; $64 | Metallic Madness Act 3 good future 
0000C6DC 0000 BD00                  	dc.l	File_BossPCM			; $65 | Metallic Madness Act 3 bad future 
0000C6E0 0000 B800                  	dc.l	File_R11A			; $66 | Invalid
0000C6E4 0000 B800                  	dc.l	File_R11A			; $67 | Invalid
0000C6E8 0000 B800                  	dc.l	File_R11A			; $68 | Invalid
0000C6EC 0000 B800                  	dc.l	File_R11A			; $69 | Invalid
0000C6F0 0000 B800                  	dc.l	File_R11A			; $6A | Invalid
0000C6F4 0000 B800                  	dc.l	File_R11A			; $6B | Invalid
0000C6F8 0000 B800                  	dc.l	File_R11A			; $6C | Invalid
0000C6FC 0000 B800                  	dc.l	File_R11A			; $6D | Invalid
0000C700 0000 B800                  	dc.l	File_R11A			; $6E | Invalid
0000C704 0000 B800                  	dc.l	File_R11A			; $6F | Invalid
0000C708 0000 B800                  	dc.l	File_R11A			; $70 | Invalid
0000C70C 0000 B800                  	dc.l	File_R11A			; $71 | Invalid
0000C710 0000 B800                  	dc.l	File_R11A			; $72 | Invalid
0000C714 0000 B800                  	dc.l	File_R11A			; $73 | Invalid
0000C718 0000 B800                  	dc.l	File_R11A			; $74 | Invalid
0000C71C 0000 B800                  	dc.l	File_R11A			; $75 | Invalid
0000C720 0000 B800                  	dc.l	File_R11A			; $76 | Invalid
0000C724 0000 B800                  	dc.l	File_R11A			; $77 | Invalid
0000C728 0000 B800                  	dc.l	File_R11A			; $78 | Invalid
0000C72C 0000 B800                  	dc.l	File_R11A			; $79 | Invalid
0000C730 0000 B800                  	dc.l	File_R11A			; $7A | Invalid
0000C734 0000 B800                  	dc.l	File_R11A			; $7B | Invalid
0000C738 0000 B800                  	dc.l	File_R11A			; $7C | Invalid
0000C73C 0000 B800                  	dc.l	File_R11A			; $7D | Invalid
0000C740 0000 B800                  	dc.l	File_R11A			; $7E | Invalid
0000C744 0000 B800                  	dc.l	File_R11A			; $7F | Invalid
0000C748 0000 B800                  	dc.l	File_R11A			; $80 | Invalid
0000C74C 0000 B800                  	dc.l	File_R11A			; $81 | Invalid
0000C750 0000 B800                  	dc.l	File_R11A			; $82 | Invalid
0000C754 0000 B800                  	dc.l	File_R11A			; $83 | Invalid
0000C758 0000 BC97                  	dc.l	File_R1PCM			; $84 | Palmtree Panic Act 1 present demo
0000C75C 0000 B800                  	dc.l	File_R11A			; $85 | Invalid
0000C760 0000 B800                  	dc.l	File_R11A			; $86 | Invalid
0000C764 0000 B800                  	dc.l	File_R11A			; $87 | Invalid
0000C768 0000 B800                  	dc.l	File_R11A			; $88 | Invalid
0000C76C 0000 B800                  	dc.l	File_R11A			; $89 | Invalid
0000C770 0000 B800                  	dc.l	File_R11A			; $8A | Invalid
0000C774 0000 B800                  	dc.l	File_R11A			; $8B | Invalid
0000C778 0000 B800                  	dc.l	File_R11A			; $8C | Invalid
0000C77C 0000 B800                  	dc.l	File_R11A			; $8D | Invalid
0000C780 0000 B800                  	dc.l	File_R11A			; $8E | Invalid
0000C784 0000 B800                  	dc.l	File_R11A			; $8F | Invalid
0000C788 0000 B800                  	dc.l	File_R11A			; $90 | Invalid
0000C78C 0000 B800                  	dc.l	File_R11A			; $91 | Invalid
0000C790 0000 B800                  	dc.l	File_R11A			; $92 | Invalid
0000C794 0000 B800                  	dc.l	File_R11A			; $93 | Invalid
0000C798 0000 B800                  	dc.l	File_R11A			; $94 | Invalid
0000C79C 0000 B800                  	dc.l	File_R11A			; $95 | Invalid
0000C7A0                            
0000C7A0                            ; -------------------------------------------------------------------------------
0000C7A0                            ; Load Mega Drive initialization
0000C7A0                            ; -------------------------------------------------------------------------------
0000C7A0                            
0000C7A0                            SPCmd_LoadMDInit:
0000C7A0 41FA F092                  	lea	File_MDInit(pc),a0		; Load file
0000C7A4 6100 0000                  	bsr.w	WaitWordRAMAccess
0000C7A8 43F9 0008 0000             	lea	WORDRAM_2M,a1
0000C7AE 4EB8 7800                  	jsr	LoadFile.w
0000C7B2 6000 0000                  	bra.w	GiveWordRAMAccess
0000C7B6                            
0000C7B6                            ; -------------------------------------------------------------------------------
0000C7B6                            ; Load title screen
0000C7B6                            ; -------------------------------------------------------------------------------
0000C7B6                            
0000C7B6                            SPCmd_LoadTitle:
0000C7B6 41FA F0D7                  	lea	File_TitleMain(pc),a0		; Load Main CPU file
0000C7BA 6100 0000                  	bsr.w	WaitWordRAMAccess
0000C7BE 43F9 0008 0000             	lea	WORDRAM_2M,a1
0000C7C4 4EB8 7800                  	jsr	LoadFile.w
0000C7C8                            
0000C7C8 41FA F0D2                  	lea	File_TitleSub(pc),a0		; Load Sub CPU file
0000C7CC 43F9 0001 0000             	lea	PRG_RAM+$10000,a1
0000C7D2 4EB8 7800                  	jsr	LoadFile.w
0000C7D6                            
0000C7D6 6100 0000                  	bsr.w	GiveWordRAMAccess		; Give Main CPU Word RAM access
0000C7DA                            
0000C7DA 6100 0000                  	bsr.w	ResetCDDAVol			; Play title screen music
0000C7DE 41FA 0000                  	lea	MusID_Title(pc),a0
0000C7E2 303C 0012                  	move.w	#MSCPLAY1,d0
0000C7E6 4EB8 5F22                  	jsr	_CDBIOS.w
0000C7EA                            
0000C7EA 4EB9 0001 0000             	jsr	PRG_RAM+$10000			; Run Sub CPU file code
0000C7F0                            
0000C7F0 21FC 0000 7700 5F36        	move.l	#SPIRQ2,_USERCALL2+2.w		; Restore IRQ2
0000C7F8 4E75                       	rts
0000C7FA                            
0000C7FA                            ; -------------------------------------------------------------------------------
0000C7FA                            ; Load "Comin' Soon" screen
0000C7FA                            ; -------------------------------------------------------------------------------
0000C7FA                            
0000C7FA                            SPCmd_LoadCominSoon:
0000C7FA 41FA F130                  	lea	File_CominSoon(pc),a0		; Load file
0000C7FE 6100 0000                  	bsr.w	WaitWordRAMAccess
0000C802 43F9 0008 0000             	lea	WORDRAM_2M,a1
0000C808 4EB8 7800                  	jsr	LoadFile.w
0000C80C 6100 0000                  	bsr.w	GiveWordRAMAccess
0000C810                            
0000C810 6100 0000                  	bsr.w	ResetCDDAVol			; Play invincibility music
0000C814 41FA 0000                  	lea	MusID_Invinc(pc),a0
0000C818 303C 0013                  	move.w	#MSCPLAYR,d0
0000C81C 4EF8 5F22                  	jmp	_CDBIOS.w
0000C820                            
0000C820                            ; -------------------------------------------------------------------------------
0000C820                            ; Load staff credits
0000C820                            ; -------------------------------------------------------------------------------
0000C820                            
0000C820                            SPCmd_LoadStaffCreds:
0000C820 41FA F5B2                  	lea	File_StaffCredits(pc),a0	; Load file
0000C824 6100 0000                  	bsr.w	WaitWordRAMAccess
0000C828 43F9 0008 0000             	lea	WORDRAM_2M,a1
0000C82E 4EB8 7800                  	jsr	LoadFile.w
0000C832 6100 0000                  	bsr.w	GiveWordRAMAccess
0000C836                            
0000C836 6000 0000                  	bra.w	SPCmd_PlayEndingMus		; Play ending music
0000C83A                            
0000C83A                            ; -------------------------------------------------------------------------------
0000C83A                            ; Load "Fun is infinite" screen
0000C83A                            ; -------------------------------------------------------------------------------
0000C83A                            
0000C83A                            SPCmd_LoadFunIsInf:
0000C83A 41FA F58D                  	lea	File_FunIsInf(pc),a0		; Load file
0000C83E 6100 0000                  	bsr.w	WaitWordRAMAccess
0000C842 43F9 0008 0000             	lea	WORDRAM_2M,a1
0000C848 4EB8 7800                  	jsr	LoadFile.w
0000C84C 6100 0000                  	bsr.w	GiveWordRAMAccess
0000C850                            
0000C850 6000 0000                  	bra.w	SPCmd_PlayBossMus		; Play boss music
0000C854                            
0000C854                            ; -------------------------------------------------------------------------------
0000C854                            ; Load M.C. Sonic screen
0000C854                            ; -------------------------------------------------------------------------------
0000C854                            
0000C854                            SPCmd_LoadMCSonic:
0000C854 41FA F58B                  	lea	File_MCSonic(pc),a0		; Load file
0000C858 6100 0000                  	bsr.w	WaitWordRAMAccess
0000C85C 43F9 0008 0000             	lea	WORDRAM_2M,a1
0000C862 4EB8 7800                  	jsr	LoadFile.w
0000C866 6100 0000                  	bsr.w	GiveWordRAMAccess
0000C86A                            
0000C86A 6000 0000                  	bra.w	SPCmd_PlayR8AMus		; Play Metallic Madness present music
0000C86E                            
0000C86E                            ; -------------------------------------------------------------------------------
0000C86E                            ; Load Tails screen
0000C86E                            ; -------------------------------------------------------------------------------
0000C86E                            
0000C86E                            SPCmd_LoadTails:
0000C86E 41FA F57E                  	lea	File_Tails(pc),a0		; Load file
0000C872 6100 0000                  	bsr.w	WaitWordRAMAccess
0000C876 43F9 0008 0000             	lea	WORDRAM_2M,a1
0000C87C 4EB8 7800                  	jsr	LoadFile.w
0000C880 6100 0000                  	bsr.w	GiveWordRAMAccess
0000C884                            
0000C884 6000 0000                  	bra.w	SPCmd_PlayDAGardenMus		; Play D.A. Garden music
0000C888                            
0000C888                            ; -------------------------------------------------------------------------------
0000C888                            ; Load Batman Sonic screen
0000C888                            ; -------------------------------------------------------------------------------
0000C888                            
0000C888                            SPCmd_LoadBatmanSonic:
0000C888 41FA F571                  	lea	File_BatmanSonic(pc),a0		; Load file
0000C88C 6100 0000                  	bsr.w	WaitWordRAMAccess
0000C890 43F9 0008 0000             	lea	WORDRAM_2M,a1
0000C896 4EB8 7800                  	jsr	LoadFile.w
0000C89A 6100 0000                  	bsr.w	GiveWordRAMAccess
0000C89E                            
0000C89E 6000 0000                  	bra.w	SPCmd_PlayFinalMus		; Play final boss music
0000C8A2                            
0000C8A2                            ; -------------------------------------------------------------------------------
0000C8A2                            ; Load cute Sonic screen
0000C8A2                            ; -------------------------------------------------------------------------------
0000C8A2                            
0000C8A2                            SPCmd_LoadCuteSonic:
0000C8A2 41FA F564                  	lea	File_CuteSonic(pc),a0		; Load file
0000C8A6 6100 0000                  	bsr.w	WaitWordRAMAccess
0000C8AA 43F9 0008 0000             	lea	WORDRAM_2M,a1
0000C8B0 4EB8 7800                  	jsr	LoadFile.w
0000C8B4 6100 0000                  	bsr.w	GiveWordRAMAccess
0000C8B8                            
0000C8B8 6000 0000                  	bra.w	SPCmd_PlayR1CMus		; Play Palmtree Panic good future music
0000C8BC                            
0000C8BC                            ; -------------------------------------------------------------------------------
0000C8BC                            ; Load best staff times screen
0000C8BC                            ; -------------------------------------------------------------------------------
0000C8BC                            
0000C8BC                            SPCmd_LoadStaffTimes:
0000C8BC 41FA F557                  	lea	File_StaffTimes(pc),a0		; Load file
0000C8C0 6100 0000                  	bsr.w	WaitWordRAMAccess
0000C8C4 43F9 0008 0000             	lea	WORDRAM_2M,a1
0000C8CA 4EB8 7800                  	jsr	LoadFile.w
0000C8CE 6100 0000                  	bsr.w	GiveWordRAMAccess
0000C8D2                            
0000C8D2 41FA 0000                  	lea	MusID_Shoes(pc),a0		; Play speed shoes music
0000C8D6 6100 0000                  	bsr.w	ResetCDDAVol
0000C8DA 303C 0013                  	move.w	#MSCPLAYR,d0
0000C8DE 4EF8 5F22                  	jmp	_CDBIOS.w
0000C8E2                            
0000C8E2                            ; -------------------------------------------------------------------------------
0000C8E2                            ; Load main program
0000C8E2                            ; -------------------------------------------------------------------------------
0000C8E2                            
0000C8E2                            SPCmd_LoadIPX:
0000C8E2 41FA EFEC                  	lea	File_IPX(pc),a0			; Load file
0000C8E6 6000                       	bra.s	LoadFileIntoWordRAM
0000C8E8                            
0000C8E8                            ; -------------------------------------------------------------------------------
0000C8E8                            ; Load sound test
0000C8E8                            ; -------------------------------------------------------------------------------
0000C8E8                            
0000C8E8                            SPCmd_LoadSndTest:
0000C8E8 41FA EF57                  	lea	File_SoundTest(pc),a0		; Load file
0000C8EC 6000                       	bra.s	LoadFileIntoWordRAM
0000C8EE                            
0000C8EE                            ; -------------------------------------------------------------------------------
0000C8EE                            ; Load dummy file (unused)
0000C8EE                            ; -------------------------------------------------------------------------------
0000C8EE                            
0000C8EE                            SPCmd_LoadDummyFile1:
0000C8EE 41FA F4F1                  	lea	File_MCSonic(pc),a0		; Load file
0000C8F2 6000                       	bra.s	LoadFileIntoWordRAM
0000C8F4                            
0000C8F4                            ; -------------------------------------------------------------------------------
0000C8F4                            ; Load dummy file (unused)
0000C8F4                            ; -------------------------------------------------------------------------------
0000C8F4                            
0000C8F4                            SPCmd_LoadDummyFile2:
0000C8F4 41FA F4EB                  	lea	File_MCSonic(pc),a0		; Load file
0000C8F8 6000                       	bra.s	LoadFileIntoWordRAM
0000C8FA                            
0000C8FA                            ; -------------------------------------------------------------------------------
0000C8FA                            ; Load dummy file (unused)
0000C8FA                            ; -------------------------------------------------------------------------------
0000C8FA                            
0000C8FA                            SPCmd_LoadDummyFile3:
0000C8FA 41FA F4E5                  	lea	File_MCSonic(pc),a0		; Load file
0000C8FE 6000                       	bra.s	LoadFileIntoWordRAM
0000C900                            
0000C900                            ; -------------------------------------------------------------------------------
0000C900                            ; Load dummy file (unused)
0000C900                            ; -------------------------------------------------------------------------------
0000C900                            
0000C900                            SPCmd_LoadDummyFile4:
0000C900 41FA F4DF                  	lea	File_MCSonic(pc),a0		; Load file
0000C904 6000                       	bra.s	LoadFileIntoWordRAM
0000C906                            
0000C906                            ; -------------------------------------------------------------------------------
0000C906                            ; Load dummy file (unused)
0000C906                            ; -------------------------------------------------------------------------------
0000C906                            
0000C906                            SPCmd_LoadDummyFile5:
0000C906 41FA F4D9                  	lea	File_MCSonic(pc),a0		; Load file
0000C90A 6000                       	bra.s	LoadFileIntoWordRAM
0000C90C                            
0000C90C                            ; -------------------------------------------------------------------------------
0000C90C                            ; Load stage select
0000C90C                            ; -------------------------------------------------------------------------------
0000C90C                            
0000C90C                            SPCmd_LoadStageSel:
0000C90C 41FA EF40                  	lea	File_StageSelect(pc),a0		; Load file
0000C910                            	
0000C910                            ; -------------------------------------------------------------------------------
0000C910                            ; Load file into Word RAM
0000C910                            ; -------------------------------------------------------------------------------
0000C910                            ; PARAMETERS
0000C910                            ;	a0.l - Pointer to file name
0000C910                            ; -------------------------------------------------------------------------------
0000C910                            
0000C910                            LoadFileIntoWordRAM:
0000C910 6100 0000                  	bsr.w	WaitWordRAMAccess		; Load file into Word RAM
0000C914 43F9 0008 0000             	lea	WORDRAM_2M,a1
0000C91A 4EB8 7800                  	jsr	LoadFile.w
0000C91E 6000 0000                  	bra.w	GiveWordRAMAccess
0000C922                            
0000C922                            ; -------------------------------------------------------------------------------
0000C922                            ; Load Visual Mode menu
0000C922                            ; -------------------------------------------------------------------------------
0000C922                            
0000C922                            SPCmd_LoadVisualMode:
0000C922 41FA F417                  	lea	File_VisualMode(pc),a0		; Load file
0000C926 6100 0000                  	bsr.w	WaitWordRAMAccess
0000C92A 43F9 0008 0000             	lea	WORDRAM_2M,a1
0000C930 4EB8 7800                  	jsr	LoadFile.w
0000C934                            
0000C934 6100 0000                  	bsr.w	ResetCDDAVol			; Play title screen music
0000C938 41FA 0000                  	lea	MusID_Title(pc),a0
0000C93C 303C 0013                  	move.w	#MSCPLAYR,d0
0000C940 4EB8 5F22                  	jsr	_CDBIOS.w
0000C944                            
0000C944 6000 0000                  	bra.w	GiveWordRAMAccess		; Give Main CPU Word RAM access
0000C948                            
0000C948                            ; -------------------------------------------------------------------------------
0000C948                            ; Load warp sequence
0000C948                            ; -------------------------------------------------------------------------------
0000C948                            
0000C948                            SPCmd_LoadWarp:
0000C948 41FA EF5F                  	lea	File_Warp(pc),a0		; Load file
0000C94C 6100 0000                  	bsr.w	WaitWordRAMAccess
0000C950 43F9 0008 0000             	lea	WORDRAM_2M,a1
0000C956 4EB8 7800                  	jsr	LoadFile.w
0000C95A 6000 0000                  	bra.w	GiveWordRAMAccess
0000C95E                            
0000C95E                            ; -------------------------------------------------------------------------------
0000C95E                            ; Load time attack menu
0000C95E                            ; -------------------------------------------------------------------------------
0000C95E                            
0000C95E                            SPCmd_LoadTimeAttack:
0000C95E 41FA EF56                  	lea	File_TimeAttackMain(pc),a0	; Load file
0000C962 6100 0000                  	bsr.w	WaitWordRAMAccess
0000C966 43F9 0008 0000             	lea	WORDRAM_2M,a1
0000C96C 4EB8 7800                  	jsr	LoadFile.w
0000C970 6100 0000                  	bsr.w	GiveWordRAMAccess
0000C974                            
0000C974 6100 0000                  	bsr.w	ResetCDDAVol			; Play D.A. Garden music
0000C978 41FA 0000                  	lea	MusID_DAGarden(pc),a0
0000C97C 303C 0013                  	move.w	#MSCPLAYR,d0
0000C980 4EB8 5F22                  	jsr	_CDBIOS.w
0000C984 4E75                       	rts
0000C986                            
0000C986                            ; -------------------------------------------------------------------------------
0000C986                            ; Load D.A. Garden
0000C986                            ; -------------------------------------------------------------------------------
0000C986                            
0000C986                            SPCmd_LoadDAGarden:
0000C986 41FA EFB1                  	lea	File_DAGardenMain(pc),a0	; Load Main CPU file
0000C98A 6100 0000                  	bsr.w	WaitWordRAMAccess
0000C98E 43F9 0008 0000             	lea	WORDRAM_2M,a1
0000C994 4EB8 7800                  	jsr	LoadFile.w
0000C998                            
0000C998 41FA F384                  	lea	File_DAGardenData(pc),a0	; Load data file
0000C99C 6100 0000                  	bsr.w	WaitWordRAMAccess
0000C9A0 43F9 0009 2C00             	lea	WORDRAM_2M+$12C00,a1
0000C9A6 4EB8 7800                  	jsr	LoadFile.w
0000C9AA 6100 0000                  	bsr.w	GiveWordRAMAccess
0000C9AE                            
0000C9AE 41FA EF98                  	lea	File_DAGardenSub(pc),a0		; Load Sub CPU file
0000C9B2 43F9 0001 0000             	lea	PRG_RAM+$10000,a1
0000C9B8 4EB8 7800                  	jsr	LoadFile.w
0000C9BC                            
0000C9BC 6100 0000                  	bsr.w	ResetCDDAVol			; Play D.A. Garden music
0000C9C0 41FA 0000                  	lea	MusID_DAGarden(pc),a0
0000C9C4 303C 0013                  	move.w	#MSCPLAYR,d0
0000C9C8 4EB8 5F22                  	jsr	_CDBIOS.w
0000C9CC                            
0000C9CC 4EB9 0001 0000             	jsr	PRG_RAM+$10000			; Run Sub CPU file code
0000C9D2                            
0000C9D2 21FC 0000 7700 5F36        	move.l	#SPIRQ2,_USERCALL2+2.w		; Restore IRQ2
0000C9DA 4E75                       	rts
0000C9DC                            
0000C9DC                            ; -------------------------------------------------------------------------------
0000C9DC                            ; Load opening FMV
0000C9DC                            ; -------------------------------------------------------------------------------
0000C9DC                            
0000C9DC                            SPCmd_LoadOpening:
0000C9DC 08B8 0003 8033             	bclr	#3,GA_INT_MASK+1.w		; Disable timer interrupt
0000C9E2                            
0000C9E2 41FA EF2E                  	lea	File_OpeningMain(pc),a0		; Load Main CPU file
0000C9E6 6100 0000                  	bsr.w	WaitWordRAMAccess
0000C9EA 43F9 0008 0000             	lea	WORDRAM_2M,a1
0000C9F0 4EB8 7800                  	jsr	LoadFile.w
0000C9F4 6100 0000                  	bsr.w	GiveWordRAMAccess
0000C9F8                            
0000C9F8 41FA EF25                  	lea	File_OpeningSub(pc),a0		; Load Sub CPU file
0000C9FC 43F9 0003 0000             	lea	PRG_RAM+$30000,a1
0000CA02 4EB8 7800                  	jsr	LoadFile.w
0000CA06                            
0000CA06 4EB9 0003 0000             	jsr	PRG_RAM+$30000			; Run Sub CPU file code
0000CA0C                            
0000CA0C 21FC 0000 7700 5F36        	move.l	#SPIRQ2,_USERCALL2+2.w		; Restore IRQ2
0000CA14 0238 00FA 8003             	andi.b	#$FA,GA_MEM_MODE+1.w		; Set to 2M mode
0000CA1A 11FC 0003 8004             	move.b	#3,GA_CDC_MODE.w		; Set CDC mode to "Sub CPU"
0000CA20 21FC 0000 0000 7000        	move.l	#0,curPCMDriver.w		; Reset current PCM driver
0000CA28 4E75                       	rts
0000CA2A                            
0000CA2A                            ; -------------------------------------------------------------------------------
0000CA2A                            
0000CA2A                            SPCmd_LoadGoodEnd:
0000CA2A 08B8 0003 8033             	bclr	#3,GA_INT_MASK+1.w		; Disable timer interrupt
0000CA30                            
0000CA30 41FA F36F                  	lea	File_EndingMain(pc),a0		; Load Main CPU file
0000CA34 6100 0000                  	bsr.w	WaitWordRAMAccess
0000CA38 43F9 0008 0000             	lea	WORDRAM_2M,a1
0000CA3E 4EB8 7800                  	jsr	LoadFile.w
0000CA42 6100 0000                  	bsr.w	GiveWordRAMAccess
0000CA46                            
0000CA46 41FA F366                  	lea	File_GoodEndSub(pc),a0		; Load Sub CPU file
0000CA4A 43F9 0003 0000             	lea	PRG_RAM+$30000,a1
0000CA50 4EB8 7800                  	jsr	LoadFile.w
0000CA54                            
0000CA54 4EB9 0003 0000             	jsr	PRG_RAM+$30000			; Run Sub CPU file code
0000CA5A                            
0000CA5A 21FC 0000 7700 5F36        	move.l	#SPIRQ2,_USERCALL2+2.w		; Restore IRQ2
0000CA62 0238 00FA 8003             	andi.b	#$FA,GA_MEM_MODE+1.w		; Set to 2M mode
0000CA68 11FC 0003 8004             	move.b	#3,GA_CDC_MODE.w		; Set CDC mode to "Sub CPU"
0000CA6E 21FC 0000 0000 7000        	move.l	#0,curPCMDriver.w		; Reset current PCM driver
0000CA76 4E75                       	rts
0000CA78                            
0000CA78                            ; -------------------------------------------------------------------------------
0000CA78                            
0000CA78                            SPCmd_LoadBadEnd:
0000CA78 08B8 0003 8033             	bclr	#3,GA_INT_MASK+1.w		; Disable timer interrupt
0000CA7E                            
0000CA7E 41FA F321                  	lea	File_EndingMain(pc),a0		; Load Main CPU file
0000CA82 6100 0000                  	bsr.w	WaitWordRAMAccess
0000CA86 43F9 0008 0000             	lea	WORDRAM_2M,a1
0000CA8C 4EB8 7800                  	jsr	LoadFile.w
0000CA90 6100 0000                  	bsr.w	GiveWordRAMAccess
0000CA94                            
0000CA94 41FA F326                  	lea	File_BadEndSub(pc),a0		; Load Sub CPU file
0000CA98 43F9 0003 0000             	lea	PRG_RAM+$30000,a1
0000CA9E 4EB8 7800                  	jsr	LoadFile.w
0000CAA2                            
0000CAA2 4EB9 0003 0000             	jsr	PRG_RAM+$30000			; Run Sub CPU file code
0000CAA8                            
0000CAA8 21FC 0000 7700 5F36        	move.l	#SPIRQ2,_USERCALL2+2.w		; Restore IRQ2
0000CAB0 0238 00FA 8003             	andi.b	#$FA,GA_MEM_MODE+1.w		; Set to 2M mode
0000CAB6 11FC 0003 8004             	move.b	#3,GA_CDC_MODE.w		; Set CDC mode to "Sub CPU"
0000CABC 21FC 0000 0000 7000        	move.l	#0,curPCMDriver.w		; Reset current PCM driver
0000CAC4 4E75                       	rts
0000CAC6                            
0000CAC6                            ; -------------------------------------------------------------------------------
0000CAC6                            ; Load special stage
0000CAC6                            ; -------------------------------------------------------------------------------
0000CAC6                            
0000CAC6                            SPCmd_LoadSpecStage:
0000CAC6 08B8 0003 8033             	bclr	#3,GA_INT_MASK+1.w		; Disable timer interrupt
0000CACC                            
0000CACC 11F8 8013 8023             	move.b	GA_CMD_3.w,GA_STAT_3.w		; Set stage ID
0000CAD2 11F8 801A 802A             	move.b	GA_CMD_A.w,GA_STAT_A.w		; Set stages beaten array
0000CAD8 11F8 801B 7004             	move.b	GA_CMD_B.w,ssFlags.w		; Set flags
0000CADE                            
0000CADE 41FA F19D                  	lea	File_SpecialMain(pc),a0		; Load Main CPU file
0000CAE2 6100 0000                  	bsr.w	WaitWordRAMAccess
0000CAE6 43F9 0008 0000             	lea	WORDRAM_2M,a1
0000CAEC 4EB8 7800                  	jsr	LoadFile.w
0000CAF0                            
0000CAF0 41FA F198                  	lea	File_SpecialSub(pc),a0		; Load Sub CPU file
0000CAF4 43F9 0001 0000             	lea	PRG_RAM+$10000,a1
0000CAFA 4EB8 7800                  	jsr	LoadFile.w
0000CAFE                            
0000CAFE 7000                       	moveq	#0,d0				; Copy background graphics data into Word RAM
0000CB00 1038 8023                  	move.b	GA_STAT_3.w,d0
0000CB04 C0FC 0006                  	mulu.w	#6,d0
0000CB08 41F9 0001 8000             	lea	PRG_RAM+$18000,a0
0000CB0E 3E30 0004                  	move.w	4(a0,d0.w),d7
0000CB12 2070 0000                  	movea.l	(a0,d0.w),a0
0000CB16 43F9 0008 6D00             	lea	WORDRAM_2M+$6D00,a1
0000CB1C                            
0000CB1C                            .CopyData:
0000CB1C 12D8                       	move.b	(a0)+,(a1)+
0000CB1E 51CF FFFC                  	dbf	d7,.CopyData
0000CB22                            
0000CB22 6100 0000                  	bsr.w	GiveWordRAMAccess		; Give Main CPU Word RAM access
0000CB26                            
0000CB26 6100 0000                  	bsr.w	ResetCDDAVol			; Play special stage music
0000CB2A 41FA 0000                  	lea	MusID_Special(pc),a0
0000CB2E 303C 0013                  	move.w	#MSCPLAYR,d0
0000CB32 4EB8 5F22                  	jsr	_CDBIOS.w
0000CB36                            
0000CB36 4EB9 0001 0000             	jsr	PRG_RAM+$10000			; Run Sub CPU file code
0000CB3C                            
0000CB3C 21FC 0000 7700 5F36        	move.l	#SPIRQ2,_USERCALL2+2.w		; Restore IRQ2
0000CB44                            	
0000CB44 0838 0001 7004             	btst	#1,ssFlags.w			; Should we play the level end music?
0000CB4A 6600                       	bne.s	.NoLevelEndMusic		; If not, branch
0000CB4C 6100 0000                  	bsr.w	ResetCDDAVol			; If so, play it
0000CB50 41FA 0000                  	lea	MusID_LevelEnd(pc),a0
0000CB54 303C 0012                  	move.w	#MSCPLAY1,d0
0000CB58 4EB8 5F22                  	jsr	_CDBIOS.w
0000CB5C                            
0000CB5C                            .NoLevelEndMusic:
0000CB5C 11FC 0000 7004             	move.b	#0,ssFlags.w			; Clear special stage flags
0000CB62 21FC 0000 0000 7000        	move.l	#0,curPCMDriver.w		; Reset current PCM driver
0000CB6A 4E75                       	rts
0000CB6C                            
0000CB6C                            ; -------------------------------------------------------------------------------
0000CB6C                            ; Play "Future" voice clip
0000CB6C                            ; -------------------------------------------------------------------------------
0000CB6C                            
0000CB6C                            SPCmd_PlayFutureSFX:
0000CB6C 13FC 00B1 0004 0022        	move.b	#PCMS_FUTURE,PCMDrv_Queue
0000CB74 6000 0000                  	bra.w	SPCmdFinish
0000CB78                            
0000CB78                            ; -------------------------------------------------------------------------------
0000CB78                            ; Play "Past" voice clip
0000CB78                            ; -------------------------------------------------------------------------------
0000CB78                            
0000CB78                            SPCmd_PlayPastSFX:
0000CB78 13FC 00B2 0004 0022        	move.b	#PCMS_PAST,PCMDrv_Queue
0000CB80 6000 0000                  	bra.w	SPCmdFinish
0000CB84                            
0000CB84                            ; -------------------------------------------------------------------------------
0000CB84                            ; Play "Alright" voice clip
0000CB84                            ; -------------------------------------------------------------------------------
0000CB84                            
0000CB84                            SPCmd_PlayAlrightSFX:
0000CB84 13FC 00B3 0004 0022        	move.b	#PCMS_ALRIGHT,PCMDrv_Queue
0000CB8C 6000 0000                  	bra.w	SPCmdFinish
0000CB90                            
0000CB90                            ; -------------------------------------------------------------------------------
0000CB90                            ; Play "I'm outta here" voice clip
0000CB90                            ; -------------------------------------------------------------------------------
0000CB90                            
0000CB90                            SPCmd_PlayGiveUpSFX:
0000CB90 13FC 00B4 0004 0022        	move.b	#$B4,PCMDrv_Queue
0000CB98 6000 0000                  	bra.w	SPCmdFinish
0000CB9C                            
0000CB9C                            ; -------------------------------------------------------------------------------
0000CB9C                            ; Play "Yes" voice clip
0000CB9C                            ; -------------------------------------------------------------------------------
0000CB9C                            
0000CB9C                            SPCmd_PlayYesSFX:
0000CB9C 13FC 00B5 0004 0022        	move.b	#PCMS_YES,PCMDrv_Queue
0000CBA4 6000 0000                  	bra.w	SPCmdFinish
0000CBA8                            
0000CBA8                            ; -------------------------------------------------------------------------------
0000CBA8                            ; Play "Yeah" voice clip
0000CBA8                            ; -------------------------------------------------------------------------------
0000CBA8                            
0000CBA8                            SPCmd_PlayYeahSFX:
0000CBA8 13FC 00B6 0004 0022        	move.b	#PCMS_YEAH,PCMDrv_Queue
0000CBB0 6000 0000                  	bra.w	SPCmdFinish
0000CBB4                            
0000CBB4                            ; -------------------------------------------------------------------------------
0000CBB4                            ; Play Amy giggle voice clip
0000CBB4                            ; -------------------------------------------------------------------------------
0000CBB4                            
0000CBB4                            SPCmd_PlayGiggleSFX:
0000CBB4 13FC 00B7 0004 0022        	move.b	#PCMS_GIGGLE,PCMDrv_Queue
0000CBBC 6000 0000                  	bra.w	SPCmdFinish
0000CBC0                            
0000CBC0                            ; -------------------------------------------------------------------------------
0000CBC0                            ; Play Amy yelp voice clip
0000CBC0                            ; -------------------------------------------------------------------------------
0000CBC0                            
0000CBC0                            SPCmd_PlayAmyYelpSFX:
0000CBC0 13FC 00B8 0004 0022        	move.b	#PCMS_AMYYELP,PCMDrv_Queue
0000CBC8 6000 0000                  	bra.w	SPCmdFinish
0000CBCC                            
0000CBCC                            ; -------------------------------------------------------------------------------
0000CBCC                            ; Play boss stomp sound
0000CBCC                            ; -------------------------------------------------------------------------------
0000CBCC                            
0000CBCC                            SPCmd_PlayStompSFX:
0000CBCC 13FC 00B9 0004 0022        	move.b	#PCMS_STOMP,PCMDrv_Queue
0000CBD4 6000 0000                  	bra.w	SPCmdFinish
0000CBD8                            
0000CBD8                            ; -------------------------------------------------------------------------------
0000CBD8                            ; Play bumper sound
0000CBD8                            ; -------------------------------------------------------------------------------
0000CBD8                            
0000CBD8                            SPCmd_PlayBumperSFX:
0000CBD8 13FC 00BA 0004 0022        	move.b	#PCMS_BUMPER,PCMDrv_Queue
0000CBE0 6000 0000                  	bra.w	SPCmdFinish
0000CBE4                            
0000CBE4                            ; -------------------------------------------------------------------------------
0000CBE4                            ; Play glass break sound
0000CBE4                            ; -------------------------------------------------------------------------------
0000CBE4                            
0000CBE4                            SPCmd_PlayBreakSFX:
0000CBE4 13FC 00BB 0004 0022        	move.b	#PCMS_BREAK,PCMDrv_Queue
0000CBEC 6000 0000                  	bra.w	SPCmdFinish
0000CBF0                            
0000CBF0                            ; -------------------------------------------------------------------------------
0000CBF0                            ; Play past music
0000CBF0                            ; -------------------------------------------------------------------------------
0000CBF0                            
0000CBF0                            SPCmd_PlayPastMus:
0000CBF0 13FC 0081 0004 0022        	move.b	#PCMM_PAST,PCMDrv_Queue
0000CBF8 6000 0000                  	bra.w	SPCmdFinish
0000CBFC                            
0000CBFC                            ; -------------------------------------------------------------------------------
0000CBFC                            ; Fade out PCM
0000CBFC                            ; -------------------------------------------------------------------------------
0000CBFC                            
0000CBFC                            SPCmd_FadeOutPCM:
0000CBFC 13FC 00E0 0004 0022        	move.b	#$E0,PCMDrv_Queue
0000CC04 6000 0000                  	bra.w	SPCmdFinish
0000CC08                            
0000CC08                            ; -------------------------------------------------------------------------------
0000CC08                            ; Stop PCM
0000CC08                            ; -------------------------------------------------------------------------------
0000CC08                            
0000CC08                            SPCmd_StopPCM:
0000CC08 13FC 00E1 0004 0022        	move.b	#$E1,PCMDrv_Queue
0000CC10 6000 0000                  	bra.w	SPCmdFinish
0000CC14                            
0000CC14                            ; -------------------------------------------------------------------------------
0000CC14                            ; Pause PCM
0000CC14                            ; -------------------------------------------------------------------------------
0000CC14                            
0000CC14                            SPCmd_PausePCM:
0000CC14 13FC 00E2 0004 0022        	move.b	#$E2,PCMDrv_Queue
0000CC1C 6000 0000                  	bra.w	SPCmdFinish
0000CC20                            
0000CC20                            ; -------------------------------------------------------------------------------
0000CC20                            ; Unpause PCM
0000CC20                            ; -------------------------------------------------------------------------------
0000CC20                            
0000CC20                            SPCmd_UnpausePCM:
0000CC20 13FC 00E3 0004 0022        	move.b	#$E3,PCMDrv_Queue
0000CC28 6000 0000                  	bra.w	SPCmdFinish
0000CC2C                            
0000CC2C                            ; -------------------------------------------------------------------------------
0000CC2C                            ; Reset CDDA music volume
0000CC2C                            ; -------------------------------------------------------------------------------
0000CC2C                            
0000CC2C                            SPCmd_ResetCDDAVol:
0000CC2C 6100 0000                  	bsr.w	ResetCDDAVol
0000CC30 6000 0000                  	bra.w	SPCmdFinish
0000CC34                            
0000CC34                            ; -------------------------------------------------------------------------------
0000CC34                            ; Fade out CDDA music
0000CC34                            ; -------------------------------------------------------------------------------
0000CC34                            
0000CC34                            SPCmd_FadeOutCDDA:
0000CC34 303C 0086                  	move.w	#FDRCHG,d0
0000CC38 7220                       	moveq	#$20,d1
0000CC3A 4EB8 5F22                  	jsr	_CDBIOS.w
0000CC3E 6000 0000                  	bra.w	SPCmdFinish
0000CC42                            
0000CC42                            ; -------------------------------------------------------------------------------
0000CC42                            ; Stop CDDA music
0000CC42                            ; -------------------------------------------------------------------------------
0000CC42                            
0000CC42                            SPCmd_StopCDDA:
0000CC42 303C 0002                  	move.w	#MSCSTOP,d0
0000CC46 4EB8 5F22                  	jsr	_CDBIOS.w
0000CC4A 6000 0000                  	bra.w	SPCmdFinish
0000CC4E                            
0000CC4E                            ; -------------------------------------------------------------------------------
0000CC4E                            ; Pause CDDA music
0000CC4E                            ; -------------------------------------------------------------------------------
0000CC4E                            
0000CC4E                            SPCmd_PauseCDDA:
0000CC4E 303C 0003                  	move.w	#MSCPAUSEON,d0
0000CC52 4EB8 5F22                  	jsr	_CDBIOS.w
0000CC56 6000 0000                  	bra.w	SPCmdFinish
0000CC5A                            
0000CC5A                            ; -------------------------------------------------------------------------------
0000CC5A                            ; Unpause CDDA music
0000CC5A                            ; -------------------------------------------------------------------------------
0000CC5A                            
0000CC5A                            SPCmd_UnpauseCDDA:
0000CC5A 303C 0004                  	move.w	#MSCPAUSEOFF,d0
0000CC5E 4EB8 5F22                  	jsr	_CDBIOS.w
0000CC62 6000 0000                  	bra.w	SPCmdFinish
0000CC66                            
0000CC66                            ; -------------------------------------------------------------------------------
0000CC66                            ; Reset CDDA music volume
0000CC66                            ; -------------------------------------------------------------------------------
0000CC66                            
0000CC66                            ResetCDDAVol:
0000CC66 2F08                       	move.l	a0,-(sp)
0000CC68                            	
0000CC68 303C 0085                  	move.w	#FDRSET,d0			; Set CDDA music volume
0000CC6C 323C 0380                  	move.w	#$380,d1
0000CC70 4EB8 5F22                  	jsr	_CDBIOS.w
0000CC74                            
0000CC74 303C 0085                  	move.w	#FDRSET,d0			; Set CDDA music master volume
0000CC78 323C 8380                  	move.w	#$8380,d1
0000CC7C 4EB8 5F22                  	jsr	_CDBIOS.w
0000CC80                            
0000CC80 205F                       	movea.l	(sp)+,a0
0000CC82 4E75                       	rts
0000CC84                            
0000CC84                            ; -------------------------------------------------------------------------------
0000CC84                            ; Play Palmtree Panic present music
0000CC84                            ; -------------------------------------------------------------------------------
0000CC84                            
0000CC84                            SPCmd_PlayR1AMus:
0000CC84 41FA 0000                  	lea	MusID_R1A(pc),a0
0000CC88 6000                       	bra.s	LoopCDDA
0000CC8A                            
0000CC8A                            ; -------------------------------------------------------------------------------
0000CC8A                            ; Play Palmtree Panic good future music
0000CC8A                            ; -------------------------------------------------------------------------------
0000CC8A                            
0000CC8A                            SPCmd_PlayR1CMus:
0000CC8A 41FA 0000                  	lea	MusID_R1C(pc),a0
0000CC8E 6000                       	bra.s	LoopCDDA
0000CC90                            
0000CC90                            ; -------------------------------------------------------------------------------
0000CC90                            ; Play Palmtree Panic bad future music
0000CC90                            ; -------------------------------------------------------------------------------
0000CC90                            
0000CC90                            SPCmd_PlayR1DMus:
0000CC90 41FA 0000                  	lea	MusID_R1D(pc),a0
0000CC94 6000                       	bra.s	LoopCDDA
0000CC96                            
0000CC96                            ; -------------------------------------------------------------------------------
0000CC96                            ; Play Collision Chaos present music
0000CC96                            ; -------------------------------------------------------------------------------
0000CC96                            
0000CC96                            SPCmd_PlayR3AMus:
0000CC96 41FA 0000                  	lea	MusID_R3A(pc),a0
0000CC9A 6000                       	bra.s	LoopCDDA
0000CC9C                            
0000CC9C                            ; -------------------------------------------------------------------------------
0000CC9C                            ; Play Collision Chaos good future music
0000CC9C                            ; -------------------------------------------------------------------------------
0000CC9C                            
0000CC9C                            SPCmd_PlayR3CMus:
0000CC9C 41FA 0000                  	lea	MusID_R3C(pc),a0
0000CCA0 6000                       	bra.s	LoopCDDA
0000CCA2                            
0000CCA2                            ; -------------------------------------------------------------------------------
0000CCA2                            ; Play Collision Chaos bad future music
0000CCA2                            ; -------------------------------------------------------------------------------
0000CCA2                            
0000CCA2                            SPCmd_PlayR3DMus:
0000CCA2 41FA 0000                  	lea	MusID_R3D(pc),a0
0000CCA6 6000                       	bra.s	LoopCDDA
0000CCA8                            
0000CCA8                            ; -------------------------------------------------------------------------------
0000CCA8                            ; Play Tidal Tempest present music
0000CCA8                            ; -------------------------------------------------------------------------------
0000CCA8                            
0000CCA8                            SPCmd_PlayR4AMus:
0000CCA8 41FA 0000                  	lea	MusID_R4A(pc),a0
0000CCAC 6000                       	bra.s	LoopCDDA
0000CCAE                            
0000CCAE                            ; -------------------------------------------------------------------------------
0000CCAE                            ; Play Tidal Tempest good future music
0000CCAE                            ; -------------------------------------------------------------------------------
0000CCAE                            
0000CCAE                            SPCmd_PlayR4CMus:
0000CCAE 41FA 0000                  	lea	MusID_R4C(pc),a0
0000CCB2 6000                       	bra.s	LoopCDDA
0000CCB4                            
0000CCB4                            ; -------------------------------------------------------------------------------
0000CCB4                            ; Play Tidal Tempest bad future music
0000CCB4                            ; -------------------------------------------------------------------------------
0000CCB4                            
0000CCB4                            SPCmd_PlayR4DMus:
0000CCB4 41FA 0000                  	lea	MusID_R4D(pc),a0
0000CCB8 6000                       	bra.s	LoopCDDA
0000CCBA                            
0000CCBA                            ; -------------------------------------------------------------------------------
0000CCBA                            ; Play Quartz Quadrant present music
0000CCBA                            ; -------------------------------------------------------------------------------
0000CCBA                            
0000CCBA                            SPCmd_PlayR5AMus:
0000CCBA 41FA 0000                  	lea	MusID_R5A(pc),a0
0000CCBE 6000                       	bra.s	LoopCDDA
0000CCC0                            
0000CCC0                            ; -------------------------------------------------------------------------------
0000CCC0                            ; Play Quartz Quadrant good future music
0000CCC0                            ; -------------------------------------------------------------------------------
0000CCC0                            
0000CCC0                            SPCmd_PlayR5CMus:
0000CCC0 41FA 0000                  	lea	MusID_R5C(pc),a0
0000CCC4 6000                       	bra.s	LoopCDDA
0000CCC6                            
0000CCC6                            ; -------------------------------------------------------------------------------
0000CCC6                            ; Play Quartz Quadrant bad future music
0000CCC6                            ; -------------------------------------------------------------------------------
0000CCC6                            
0000CCC6                            SPCmd_PlayR5DMus:
0000CCC6 41FA 0000                  	lea	MusID_R5D(pc),a0
0000CCCA 6000                       	bra.s	LoopCDDA
0000CCCC                            
0000CCCC                            ; -------------------------------------------------------------------------------
0000CCCC                            ; Play Wacky Workbench present music
0000CCCC                            ; -------------------------------------------------------------------------------
0000CCCC                            
0000CCCC                            SPCmd_PlayR6AMus:
0000CCCC 41FA 0000                  	lea	MusID_R6A(pc),a0
0000CCD0 6000                       	bra.s	LoopCDDA
0000CCD2                            
0000CCD2                            ; -------------------------------------------------------------------------------
0000CCD2                            ; Play Wacky Workbench good future music
0000CCD2                            ; -------------------------------------------------------------------------------
0000CCD2                            
0000CCD2                            SPCmd_PlayR6CMus:
0000CCD2 41FA 0000                  	lea	MusID_R6C(pc),a0
0000CCD6 6000                       	bra.s	LoopCDDA
0000CCD8                            
0000CCD8                            ; -------------------------------------------------------------------------------
0000CCD8                            ; Play Wacky Workbench bad future music
0000CCD8                            ; -------------------------------------------------------------------------------
0000CCD8                            
0000CCD8                            SPCmd_PlayR6DMus:
0000CCD8 41FA 0000                  	lea	MusID_R6D(pc),a0
0000CCDC 6000                       	bra.s	LoopCDDA
0000CCDE                            
0000CCDE                            ; -------------------------------------------------------------------------------
0000CCDE                            ; Play Stardust Speedway present music
0000CCDE                            ; -------------------------------------------------------------------------------
0000CCDE                            
0000CCDE                            SPCmd_PlayR7AMus:
0000CCDE 41FA 0000                  	lea	MusID_R7A(pc),a0
0000CCE2 6000                       	bra.s	LoopCDDA
0000CCE4                            
0000CCE4                            ; -------------------------------------------------------------------------------
0000CCE4                            ; Play Stardust Speedway good future music
0000CCE4                            ; -------------------------------------------------------------------------------
0000CCE4                            
0000CCE4                            SPCmd_PlayR7CMus:
0000CCE4 41FA 0000                  	lea	MusID_R7C(pc),a0
0000CCE8 6000                       	bra.s	LoopCDDA
0000CCEA                            
0000CCEA                            ; -------------------------------------------------------------------------------
0000CCEA                            ; Play Stardust Speedway bad future music
0000CCEA                            ; -------------------------------------------------------------------------------
0000CCEA                            
0000CCEA                            SPCmd_PlayR7DMus:
0000CCEA 41FA 0000                  	lea	MusID_R7D(pc),a0
0000CCEE 6000                       	bra.s	LoopCDDA
0000CCF0                            
0000CCF0                            ; -------------------------------------------------------------------------------
0000CCF0                            ; Play Metallic Madness present music
0000CCF0                            ; -------------------------------------------------------------------------------
0000CCF0                            
0000CCF0                            SPCmd_PlayR8AMus:
0000CCF0 41FA 0000                  	lea	MusID_R8A(pc),a0
0000CCF4 6000                       	bra.s	LoopCDDA
0000CCF6                            
0000CCF6                            ; -------------------------------------------------------------------------------
0000CCF6                            ; Play Metallic Madness good future music
0000CCF6                            ; -------------------------------------------------------------------------------
0000CCF6                            
0000CCF6                            SPCmd_PlayR8CMus:
0000CCF6 41FA 0000                  	lea	MusID_R8C(pc),a0
0000CCFA                            
0000CCFA                            ; -------------------------------------------------------------------------------
0000CCFA                            ; Loop CDDA music
0000CCFA                            ; -------------------------------------------------------------------------------
0000CCFA                            ; PARAMETERS
0000CCFA                            ;	a0.l - Pointer to music ID
0000CCFA                            ; -------------------------------------------------------------------------------
0000CCFA                            
0000CCFA                            LoopCDDA:
0000CCFA 6100 FF6A                  	bsr.w	ResetCDDAVol			; Reset CDDA music volume
0000CCFE 303C 0013                  	move.w	#MSCPLAYR,d0			; Play track on loop
0000CD02 4EB8 5F22                  	jsr	_CDBIOS.w
0000CD06 6000 0000                  	bra.w	SPCmdFinish
0000CD0A                            
0000CD0A                            ; -------------------------------------------------------------------------------
0000CD0A                            ; Play Metallic Madness bad future music
0000CD0A                            ; -------------------------------------------------------------------------------
0000CD0A                            
0000CD0A                            SPCmd_PlayR8DMus:
0000CD0A 41FA 0000                  	lea	MusID_R8D(pc),a0
0000CD0E 60EA                       	bra.s	LoopCDDA
0000CD10                            
0000CD10                            ; -------------------------------------------------------------------------------
0000CD10                            ; Play boss music
0000CD10                            ; -------------------------------------------------------------------------------
0000CD10                            
0000CD10                            SPCmd_PlayBossMus:
0000CD10 41FA 0000                  	lea	MusID_Boss(pc),a0
0000CD14 60E4                       	bra.s	LoopCDDA
0000CD16                            
0000CD16                            ; -------------------------------------------------------------------------------
0000CD16                            ; Play final boss music
0000CD16                            ; -------------------------------------------------------------------------------
0000CD16                            
0000CD16                            SPCmd_PlayFinalMus:
0000CD16 41FA 0000                  	lea	MusID_Final(pc),a0
0000CD1A 60DE                       	bra.s	LoopCDDA
0000CD1C                            
0000CD1C                            ; -------------------------------------------------------------------------------
0000CD1C                            ; Play time attack menu music
0000CD1C                            ; -------------------------------------------------------------------------------
0000CD1C                            
0000CD1C                            SPCmd_PlayTimeAtkMus:
0000CD1C 41FA 0000                  	lea	MusID_TimeAttack(pc),a0
0000CD20 60D8                       	bra.s	LoopCDDA
0000CD22                            
0000CD22                            ; -------------------------------------------------------------------------------
0000CD22                            ; Play special stage music
0000CD22                            ; -------------------------------------------------------------------------------
0000CD22                            
0000CD22                            SPCmd_PlaySpecialMus:
0000CD22 41FA 0000                  	lea	MusID_Special(pc),a0
0000CD26 60D2                       	bra.s	LoopCDDA
0000CD28                            
0000CD28                            ; -------------------------------------------------------------------------------
0000CD28                            ; Play D.A. Garden music
0000CD28                            ; -------------------------------------------------------------------------------
0000CD28                            
0000CD28                            SPCmd_PlayDAGardenMus:
0000CD28 41FA 0000                  	lea	MusID_DAGarden(pc),a0
0000CD2C 60CC                       	bra.s	LoopCDDA
0000CD2E                            
0000CD2E                            ; -------------------------------------------------------------------------------
0000CD2E                            ; Play prototype warp sound
0000CD2E                            ; -------------------------------------------------------------------------------
0000CD2E                            
0000CD2E                            SPCmd_PlayProtoWarp:
0000CD2E 41FA 0000                  	lea	MusID_ProtoWarp(pc),a0
0000CD32 60C6                       	bra.s	LoopCDDA
0000CD34                            
0000CD34                            ; -------------------------------------------------------------------------------
0000CD34                            ; Play opening music
0000CD34                            ; -------------------------------------------------------------------------------
0000CD34                            
0000CD34                            SPCmd_PlayIntroMus:
0000CD34 41FA 0000                  	lea	MusID_Intro(pc),a0
0000CD38 60C0                       	bra.s	LoopCDDA
0000CD3A                            
0000CD3A                            ; -------------------------------------------------------------------------------
0000CD3A                            ; Play ending music
0000CD3A                            ; -------------------------------------------------------------------------------
0000CD3A                            
0000CD3A                            SPCmd_PlayEndingMus:
0000CD3A 41FA 0000                  	lea	MusID_Ending(pc),a0
0000CD3E 60BA                       	bra.s	LoopCDDA
0000CD40                            
0000CD40                            ; -------------------------------------------------------------------------------
0000CD40                            ; Play title screen music
0000CD40                            ; -------------------------------------------------------------------------------
0000CD40                            
0000CD40                            SPCmd_PlayTitleMus:
0000CD40 41FA 0000                  	lea	MusID_Title(pc),a0
0000CD44 6000                       	bra.s	PlayCDDA
0000CD46                            
0000CD46                            ; -------------------------------------------------------------------------------
0000CD46                            ; Play level end music
0000CD46                            ; -------------------------------------------------------------------------------
0000CD46                            
0000CD46                            SPCmd_PlayLvlEndMus:
0000CD46 41FA 0000                  	lea	MusID_LevelEnd(pc),a0
0000CD4A 6000                       	bra.s	PlayCDDA
0000CD4C                            
0000CD4C                            ; -------------------------------------------------------------------------------
0000CD4C                            ; Play speed shoes music
0000CD4C                            ; -------------------------------------------------------------------------------
0000CD4C                            
0000CD4C                            SPCmd_PlayShoesMus:
0000CD4C 41FA 0000                  	lea	MusID_Shoes(pc),a0
0000CD50 6000                       	bra.s	PlayCDDA
0000CD52                            
0000CD52                            ; -------------------------------------------------------------------------------
0000CD52                            ; Play invincibility music
0000CD52                            ; -------------------------------------------------------------------------------
0000CD52                            
0000CD52                            SPCmd_PlayInvincMus:
0000CD52 41FA 0000                  	lea	MusID_Invinc(pc),a0
0000CD56 6000                       	bra.s	PlayCDDA
0000CD58                            
0000CD58                            ; -------------------------------------------------------------------------------
0000CD58                            ; Play game over music
0000CD58                            ; -------------------------------------------------------------------------------
0000CD58                            
0000CD58                            SPCmd_PlayGameOverMus:
0000CD58 41FA 0000                  	lea	MusID_GameOver(pc),a0
0000CD5C                            
0000CD5C                            ; -------------------------------------------------------------------------------
0000CD5C                            ; Play CDDA music
0000CD5C                            ; -------------------------------------------------------------------------------
0000CD5C                            ; PARAMETERS
0000CD5C                            ;	a0.l - Pointer to music ID
0000CD5C                            ; -------------------------------------------------------------------------------
0000CD5C                            
0000CD5C                            PlayCDDA:
0000CD5C 6100 FF08                  	bsr.w	ResetCDDAVol			; Reset CDDA music volume
0000CD60 303C 0012                  	move.w	#MSCPLAY1,d0			; Play track once
0000CD64 4EB8 5F22                  	jsr	_CDBIOS.w
0000CD68 6000 0000                  	bra.w	SPCmdFinish
0000CD6C                            
0000CD6C                            ; -------------------------------------------------------------------------------
0000CD6C                            ; Play Palmtree Panic present music (sound test)
0000CD6C                            ; -------------------------------------------------------------------------------
0000CD6C                            
0000CD6C                            SPCmd_TestR1AMus:
0000CD6C 41FA 0000                  	lea	MusID_R1A(pc),a0
0000CD70 6000 FFEA                  	bra.w	PlayCDDA
0000CD74                            
0000CD74                            ; -------------------------------------------------------------------------------
0000CD74                            ; Play Palmtree Panic good future music (sound test)
0000CD74                            ; -------------------------------------------------------------------------------
0000CD74                            
0000CD74                            SPCmd_TestR1CMus:
0000CD74 41FA 0000                  	lea	MusID_R1C(pc),a0
0000CD78 6000 FFE2                  	bra.w	PlayCDDA
0000CD7C                            
0000CD7C                            ; -------------------------------------------------------------------------------
0000CD7C                            ; Play Palmtree Panic bad future music (sound test)
0000CD7C                            ; -------------------------------------------------------------------------------
0000CD7C                            
0000CD7C                            SPCmd_TestR1DMus:
0000CD7C 41FA 0000                  	lea	MusID_R1D(pc),a0
0000CD80 6000 FFDA                  	bra.w	PlayCDDA
0000CD84                            
0000CD84                            ; -------------------------------------------------------------------------------
0000CD84                            ; Play Collision Chaos present music (sound test)
0000CD84                            ; -------------------------------------------------------------------------------
0000CD84                            
0000CD84                            SPCmd_TestR3AMus:
0000CD84 41FA 0000                  	lea	MusID_R3A(pc),a0
0000CD88 6000 FFD2                  	bra.w	PlayCDDA
0000CD8C                            
0000CD8C                            ; -------------------------------------------------------------------------------
0000CD8C                            ; Play Collision Chaos good future music (sound test)
0000CD8C                            ; -------------------------------------------------------------------------------
0000CD8C                            
0000CD8C                            SPCmd_TestR3CMus:
0000CD8C 41FA 0000                  	lea	MusID_R3C(pc),a0
0000CD90 6000 FFCA                  	bra.w	PlayCDDA
0000CD94                            
0000CD94                            ; -------------------------------------------------------------------------------
0000CD94                            ; Play Collision Chaos bad future music (sound test)
0000CD94                            ; -------------------------------------------------------------------------------
0000CD94                            
0000CD94                            SPCmd_TestR3DMus:
0000CD94 41FA 0000                  	lea	MusID_R3D(pc),a0
0000CD98 6000 FFC2                  	bra.w	PlayCDDA
0000CD9C                            
0000CD9C                            ; -------------------------------------------------------------------------------
0000CD9C                            ; Play Tidal Tempest present music (sound test)
0000CD9C                            ; -------------------------------------------------------------------------------
0000CD9C                            
0000CD9C                            SPCmd_TestR4AMus:
0000CD9C 41FA 0000                  	lea	MusID_R4A(pc),a0
0000CDA0 6000 FFBA                  	bra.w	PlayCDDA
0000CDA4                            
0000CDA4                            ; -------------------------------------------------------------------------------
0000CDA4                            ; Play Tidal Tempest good future music (sound test)
0000CDA4                            ; -------------------------------------------------------------------------------
0000CDA4                            
0000CDA4                            SPCmd_TestR4CMus:
0000CDA4 41FA 0000                  	lea	MusID_R4C(pc),a0
0000CDA8 6000 FFB2                  	bra.w	PlayCDDA
0000CDAC                            
0000CDAC                            ; -------------------------------------------------------------------------------
0000CDAC                            ; Play Tidal Tempest bad future music (sound test)
0000CDAC                            ; -------------------------------------------------------------------------------
0000CDAC                            
0000CDAC                            SPCmd_TestR4DMus:
0000CDAC 41FA 0000                  	lea	MusID_R4D(pc),a0
0000CDB0 6000 FFAA                  	bra.w	PlayCDDA
0000CDB4                            
0000CDB4                            ; -------------------------------------------------------------------------------
0000CDB4                            ; Play Quartz Quadrant present music (sound test)
0000CDB4                            ; -------------------------------------------------------------------------------
0000CDB4                            
0000CDB4                            SPCmd_TestR5AMus:
0000CDB4 41FA 0000                  	lea	MusID_R5A(pc),a0
0000CDB8 6000 FFA2                  	bra.w	PlayCDDA
0000CDBC                            
0000CDBC                            ; -------------------------------------------------------------------------------
0000CDBC                            ; Play Quartz Quadrant good future music (sound test)
0000CDBC                            ; -------------------------------------------------------------------------------
0000CDBC                            
0000CDBC                            SPCmd_TestR5CMus:
0000CDBC 41FA 0000                  	lea	MusID_R5C(pc),a0
0000CDC0 6000 FF9A                  	bra.w	PlayCDDA
0000CDC4                            
0000CDC4                            ; -------------------------------------------------------------------------------
0000CDC4                            ; Play Quartz Quadrant bad future music (sound test)
0000CDC4                            ; -------------------------------------------------------------------------------
0000CDC4                            
0000CDC4                            SPCmd_TestR5DMus:
0000CDC4 41FA 0000                  	lea	MusID_R5D(pc),a0
0000CDC8 6000 FF92                  	bra.w	PlayCDDA
0000CDCC                            
0000CDCC                            ; -------------------------------------------------------------------------------
0000CDCC                            ; Play Wacky Workbench present music (sound test)
0000CDCC                            ; -------------------------------------------------------------------------------
0000CDCC                            
0000CDCC                            SPCmd_TestR6AMus:
0000CDCC 41FA 0000                  	lea	MusID_R6A(pc),a0
0000CDD0 6000 FF8A                  	bra.w	PlayCDDA
0000CDD4                            
0000CDD4                            ; -------------------------------------------------------------------------------
0000CDD4                            ; Play Wacky Workbench good future music (sound test)
0000CDD4                            ; -------------------------------------------------------------------------------
0000CDD4                            
0000CDD4                            SPCmd_TestR6CMus:
0000CDD4 41FA 0000                  	lea	MusID_R6C(pc),a0
0000CDD8 6000 FF82                  	bra.w	PlayCDDA
0000CDDC                            
0000CDDC                            ; -------------------------------------------------------------------------------
0000CDDC                            ; Play Wacky Workbench bad future music (sound test)
0000CDDC                            ; -------------------------------------------------------------------------------
0000CDDC                            
0000CDDC                            SPCmd_TestR6DMus:
0000CDDC 41FA 0000                  	lea	MusID_R6D(pc),a0
0000CDE0 6000 FF7A                  	bra.w	PlayCDDA
0000CDE4                            
0000CDE4                            ; -------------------------------------------------------------------------------
0000CDE4                            ; Play Stardust Speedway present music (sound test)
0000CDE4                            ; -------------------------------------------------------------------------------
0000CDE4                            
0000CDE4                            SPCmd_TestR7AMus:
0000CDE4 41FA 0000                  	lea	MusID_R7A(pc),a0
0000CDE8 6000 FF72                  	bra.w	PlayCDDA
0000CDEC                            
0000CDEC                            ; -------------------------------------------------------------------------------
0000CDEC                            ; Play Stardust Speedway good future music (sound test)
0000CDEC                            ; -------------------------------------------------------------------------------
0000CDEC                            
0000CDEC                            SPCmd_TestR7CMus:
0000CDEC 41FA 0000                  	lea	MusID_R7C(pc),a0
0000CDF0 6000 FF6A                  	bra.w	PlayCDDA
0000CDF4                            
0000CDF4                            ; -------------------------------------------------------------------------------
0000CDF4                            ; Play Stardust Speedway bad future music (sound test)
0000CDF4                            ; -------------------------------------------------------------------------------
0000CDF4                            
0000CDF4                            SPCmd_TestR7DMus:
0000CDF4 41FA 0000                  	lea	MusID_R7D(pc),a0
0000CDF8 6000 FF62                  	bra.w	PlayCDDA
0000CDFC                            
0000CDFC                            ; -------------------------------------------------------------------------------
0000CDFC                            ; Play Metallic Madness present music (sound test)
0000CDFC                            ; -------------------------------------------------------------------------------
0000CDFC                            
0000CDFC                            SPCmd_TestR8AMus:
0000CDFC 41FA 0000                  	lea	MusID_R8A(pc),a0
0000CE00 6000 FF5A                  	bra.w	PlayCDDA
0000CE04                            
0000CE04                            ; -------------------------------------------------------------------------------
0000CE04                            ; Play Metallic Madness good future music (sound test)
0000CE04                            ; -------------------------------------------------------------------------------
0000CE04                            
0000CE04                            SPCmd_TestR8CMus:
0000CE04 41FA 0000                  	lea	MusID_R8C(pc),a0
0000CE08 6000 FF52                  	bra.w	PlayCDDA
0000CE0C                            
0000CE0C                            ; -------------------------------------------------------------------------------
0000CE0C                            ; Play Metallic Madness bad future music (sound test)
0000CE0C                            ; -------------------------------------------------------------------------------
0000CE0C                            
0000CE0C                            SPCmd_TestR8DMus:
0000CE0C 41FA 0000                  	lea	MusID_R8D(pc),a0
0000CE10 6000 FF4A                  	bra.w	PlayCDDA
0000CE14                            
0000CE14                            ; -------------------------------------------------------------------------------
0000CE14                            ; Play boss music (sound test)
0000CE14                            ; -------------------------------------------------------------------------------
0000CE14                            
0000CE14                            SPCmd_TestBossMus:
0000CE14 41FA 0000                  	lea	MusID_Boss(pc),a0
0000CE18 6000 FF42                  	bra.w	PlayCDDA
0000CE1C                            
0000CE1C                            ; -------------------------------------------------------------------------------
0000CE1C                            ; Play final boss music (sound test)
0000CE1C                            ; -------------------------------------------------------------------------------
0000CE1C                            
0000CE1C                            SPCmd_TestFinalMus:
0000CE1C 41FA 0000                  	lea	MusID_Final(pc),a0
0000CE20 6000 FF3A                  	bra.w	PlayCDDA
0000CE24                            
0000CE24                            ; -------------------------------------------------------------------------------
0000CE24                            ; Play title screen music (sound test)
0000CE24                            ; -------------------------------------------------------------------------------
0000CE24                            
0000CE24                            SPCmd_TestTitleMus:
0000CE24 41FA 0000                  	lea	MusID_Title(pc),a0
0000CE28 6000 FF32                  	bra.w	PlayCDDA
0000CE2C                            
0000CE2C                            ; -------------------------------------------------------------------------------
0000CE2C                            ; Play time attack menu music (sound test)
0000CE2C                            ; -------------------------------------------------------------------------------
0000CE2C                            
0000CE2C                            SPCmd_TestTimeAtkMus:
0000CE2C 41FA 0000                  	lea	MusID_TimeAttack(pc),a0
0000CE30 6000 FF2A                  	bra.w	PlayCDDA
0000CE34                            
0000CE34                            ; -------------------------------------------------------------------------------
0000CE34                            ; Play level end music (sound test)
0000CE34                            ; -------------------------------------------------------------------------------
0000CE34                            
0000CE34                            SPCmd_TestLvlEndMus:
0000CE34 41FA 0000                  	lea	MusID_LevelEnd(pc),a0
0000CE38 6000 FF22                  	bra.w	PlayCDDA
0000CE3C                            
0000CE3C                            ; -------------------------------------------------------------------------------
0000CE3C                            ; Play speed shoes music (sound test)
0000CE3C                            ; -------------------------------------------------------------------------------
0000CE3C                            
0000CE3C                            SPCmd_TestShoesMus:
0000CE3C 41FA 0000                  	lea	MusID_Shoes(pc),a0
0000CE40 6000 FF1A                  	bra.w	PlayCDDA
0000CE44                            
0000CE44                            ; -------------------------------------------------------------------------------
0000CE44                            ; Play invincibility music (sound test)
0000CE44                            ; -------------------------------------------------------------------------------
0000CE44                            
0000CE44                            SPCmd_TestInvincMus:
0000CE44 41FA 0000                  	lea	MusID_Invinc(pc),a0
0000CE48 6000 FF12                  	bra.w	PlayCDDA
0000CE4C                            
0000CE4C                            ; -------------------------------------------------------------------------------
0000CE4C                            ; Play game over music (sound test)
0000CE4C                            ; -------------------------------------------------------------------------------
0000CE4C                            
0000CE4C                            SPCmd_TestGameOverMus:
0000CE4C 41FA 0000                  	lea	MusID_GameOver(pc),a0
0000CE50 6000 FF0A                  	bra.w	PlayCDDA
0000CE54                            
0000CE54                            ; -------------------------------------------------------------------------------
0000CE54                            ; Play special stage music (sound test)
0000CE54                            ; -------------------------------------------------------------------------------
0000CE54                            
0000CE54                            SPCmd_TestSpecialMus:
0000CE54 41FA 0000                  	lea	MusID_Special(pc),a0
0000CE58 6000 FF02                  	bra.w	PlayCDDA
0000CE5C                            
0000CE5C                            ; -------------------------------------------------------------------------------
0000CE5C                            ; Play D.A. Garden music (sound test)
0000CE5C                            ; -------------------------------------------------------------------------------
0000CE5C                            
0000CE5C                            SPCmd_TestDAGardenMus:
0000CE5C 41FA 0000                  	lea	MusID_DAGarden(pc),a0
0000CE60 6000 FEFA                  	bra.w	PlayCDDA
0000CE64                            
0000CE64                            ; -------------------------------------------------------------------------------
0000CE64                            ; Play prototype warp sound (sound test)
0000CE64                            ; -------------------------------------------------------------------------------
0000CE64                            
0000CE64                            SPCmd_TestProtoWarp:
0000CE64 41FA 0000                  	lea	MusID_ProtoWarp(pc),a0
0000CE68 6000 FEF2                  	bra.w	PlayCDDA
0000CE6C                            
0000CE6C                            ; -------------------------------------------------------------------------------
0000CE6C                            ; Play opening music (sound test)
0000CE6C                            ; -------------------------------------------------------------------------------
0000CE6C                            
0000CE6C                            SPCmd_TestIntroMus:
0000CE6C 41FA 0000                  	lea	MusID_Intro(pc),a0
0000CE70 6000 FEEA                  	bra.w	PlayCDDA
0000CE74                            
0000CE74                            ; -------------------------------------------------------------------------------
0000CE74                            ; Play ending music (sound test)
0000CE74                            ; -------------------------------------------------------------------------------
0000CE74                            
0000CE74                            SPCmd_TestEndingMus:
0000CE74 41FA 0000                  	lea	MusID_Ending(pc),a0
0000CE78 6000 FEE2                  	bra.w	PlayCDDA
0000CE7C                            
0000CE7C                            ; -------------------------------------------------------------------------------
0000CE7C                            ; Play "Future" voice clip (sound test)
0000CE7C                            ; -------------------------------------------------------------------------------
0000CE7C                            
0000CE7C                            SPCmd_TestFutureSFX:
0000CE7C 41FA EE19                  	lea	File_R1PCM(pc),a0		; Load PCM driver
0000CE80 6100 0000                  	bsr.w	LoadPCMDriver
0000CE84 13FC 00B1 0004 0022        	move.b	#PCMS_FUTURE,PCMDrv_Queue	; Queue sound ID
0000CE8C 6000 0000                  	bra.w	SPCmdFinish
0000CE90                            
0000CE90                            ; -------------------------------------------------------------------------------
0000CE90                            ; Play "Past" voice clip (sound test)
0000CE90                            ; -------------------------------------------------------------------------------
0000CE90                            
0000CE90                            SPCmd_TestPastSFX:
0000CE90 41FA EE05                  	lea	File_R1PCM(pc),a0		; Load PCM driver
0000CE94 6100 0000                  	bsr.w	LoadPCMDriver
0000CE98 13FC 00B2 0004 0022        	move.b	#PCMS_PAST,PCMDrv_Queue		; Queue sound ID
0000CEA0 6000 0000                  	bra.w	SPCmdFinish
0000CEA4                            
0000CEA4                            ; -------------------------------------------------------------------------------
0000CEA4                            ; Play "Alright" voice clip (sound test)
0000CEA4                            ; -------------------------------------------------------------------------------
0000CEA4                            
0000CEA4                            SPCmd_TestAlrightSFX:
0000CEA4 41FA EDF1                  	lea	File_R1PCM(pc),a0		; Load PCM driver
0000CEA8 6100 0000                  	bsr.w	LoadPCMDriver
0000CEAC 13FC 00B3 0004 0022        	move.b	#PCMS_ALRIGHT,PCMDrv_Queue	; Queue sound ID
0000CEB4 6000 0000                  	bra.w	SPCmdFinish
0000CEB8                            
0000CEB8                            ; -------------------------------------------------------------------------------
0000CEB8                            ; Play "I'm outta here" voice clip (sound test)
0000CEB8                            ; -------------------------------------------------------------------------------
0000CEB8                            
0000CEB8                            SPCmd_TestGiveUpSFX:
0000CEB8 41FA EDDD                  	lea	File_R1PCM(pc),a0		; Load PCM driver
0000CEBC 6100 0000                  	bsr.w	LoadPCMDriver
0000CEC0 13FC 00B4 0004 0022        	move.b	#PCMS_GIVEUP,PCMDrv_Queue	; Queue sound ID
0000CEC8 6000 0000                  	bra.w	SPCmdFinish
0000CECC                            
0000CECC                            ; -------------------------------------------------------------------------------
0000CECC                            ; Play "Yes" voice clip (sound test)
0000CECC                            ; -------------------------------------------------------------------------------
0000CECC                            
0000CECC                            SPCmd_TestYesSFX:
0000CECC 41FA EDC9                  	lea	File_R1PCM(pc),a0		; Load PCM driver
0000CED0 6100 0000                  	bsr.w	LoadPCMDriver
0000CED4 13FC 00B5 0004 0022        	move.b	#PCMS_YES,PCMDrv_Queue		; Queue sound ID
0000CEDC 6000 0000                  	bra.w	SPCmdFinish
0000CEE0                            
0000CEE0                            ; -------------------------------------------------------------------------------
0000CEE0                            ; Play "Yeah" voice clip (sound test)
0000CEE0                            ; -------------------------------------------------------------------------------
0000CEE0                            
0000CEE0                            SPCmd_TestYeahSFX:
0000CEE0 41FA EDB5                  	lea	File_R1PCM(pc),a0		; Load PCM driver
0000CEE4 6100 0000                  	bsr.w	LoadPCMDriver
0000CEE8 13FC 00B6 0004 0022        	move.b	#PCMS_YEAH,PCMDrv_Queue		; Queue sound ID
0000CEF0 6000 0000                  	bra.w	SPCmdFinish
0000CEF4                            
0000CEF4                            ; -------------------------------------------------------------------------------
0000CEF4                            ; Play Amy giggle voice clip (sound test)
0000CEF4                            ; -------------------------------------------------------------------------------
0000CEF4                            
0000CEF4                            SPCmd_TestGiggleSFX:
0000CEF4 41FA EDA1                  	lea	File_R1PCM(pc),a0		; Load PCM driver
0000CEF8 6100 0000                  	bsr.w	LoadPCMDriver
0000CEFC 13FC 00B7 0004 0022        	move.b	#PCMS_GIGGLE,PCMDrv_Queue	; Queue sound ID
0000CF04 6000 0000                  	bra.w	SPCmdFinish
0000CF08                            
0000CF08                            ; -------------------------------------------------------------------------------
0000CF08                            ; Play Amy yelp voice clip (sound test)
0000CF08                            ; -------------------------------------------------------------------------------
0000CF08                            
0000CF08                            SPCmd_TestAmyYelpSFX:
0000CF08 41FA ED8D                  	lea	File_R1PCM(pc),a0		; Load PCM driver
0000CF0C 6100 0000                  	bsr.w	LoadPCMDriver
0000CF10 13FC 00B8 0004 0022        	move.b	#PCMS_AMYYELP,PCMDrv_Queue	; Queue sound ID
0000CF18 6000 0000                  	bra.w	SPCmdFinish
0000CF1C                            
0000CF1C                            ; -------------------------------------------------------------------------------
0000CF1C                            ; Play stomp sound (sound test)
0000CF1C                            ; -------------------------------------------------------------------------------
0000CF1C                            
0000CF1C                            SPCmd_TestStompSFX:
0000CF1C 41FA ED88                  	lea	File_R3PCM(pc),a0		; Load PCM driver
0000CF20 6100 0000                  	bsr.w	LoadPCMDriver
0000CF24 13FC 00B9 0004 0022        	move.b	#PCMS_STOMP,PCMDrv_Queue	; Queue sound ID
0000CF2C 6000 0000                  	bra.w	SPCmdFinish
0000CF30                            
0000CF30                            ; -------------------------------------------------------------------------------
0000CF30                            ; Play bumper sound (sound test)
0000CF30                            ; -------------------------------------------------------------------------------
0000CF30                            
0000CF30                            SPCmd_TestBumperSFX:
0000CF30 41FA ED74                  	lea	File_R3PCM(pc),a0		; Load PCM driver
0000CF34 6100 0000                  	bsr.w	LoadPCMDriver
0000CF38 13FC 00BA 0004 0022        	move.b	#PCMS_BUMPER,PCMDrv_Queue	; Queue sound ID
0000CF40 6000 0000                  	bra.w	SPCmdFinish
0000CF44                            
0000CF44                            ; -------------------------------------------------------------------------------
0000CF44                            ; Play Palmtree Panic past music (sound test)
0000CF44                            ; -------------------------------------------------------------------------------
0000CF44                            
0000CF44                            SPCmd_TestR1BMus:
0000CF44 41FA ED51                  	lea	File_R1PCM(pc),a0		; Load PCM driver
0000CF48 6100 0000                  	bsr.w	LoadPCMDriver
0000CF4C 13FC 0081 0004 0022        	move.b	#PCMM_PAST,PCMDrv_Queue		; Queue music ID
0000CF54 6000 0000                  	bra.w	SPCmdFinish
0000CF58                            
0000CF58                            ; -------------------------------------------------------------------------------
0000CF58                            ; Play Collision Chaos past music (sound test)
0000CF58                            ; -------------------------------------------------------------------------------
0000CF58                            
0000CF58                            SPCmd_TestR3BMus:
0000CF58 41FA ED4C                  	lea	File_R3PCM(pc),a0		; Load PCM driver
0000CF5C 6100 0000                  	bsr.w	LoadPCMDriver
0000CF60 13FC 0081 0004 0022        	move.b	#PCMM_PAST,PCMDrv_Queue		; Queue music ID
0000CF68 6000 0000                  	bra.w	SPCmdFinish
0000CF6C                            
0000CF6C                            ; -------------------------------------------------------------------------------
0000CF6C                            ; Play Tidal Tempest past music (sound test)
0000CF6C                            ; -------------------------------------------------------------------------------
0000CF6C                            
0000CF6C                            SPCmd_TestR4BMus:
0000CF6C 41FA ED47                  	lea	File_R4PCM(pc),a0		; Load PCM driver
0000CF70 6100 0000                  	bsr.w	LoadPCMDriver
0000CF74 13FC 0081 0004 0022        	move.b	#PCMM_PAST,PCMDrv_Queue		; Queue music ID
0000CF7C 6000 0000                  	bra.w	SPCmdFinish
0000CF80                            
0000CF80                            ; -------------------------------------------------------------------------------
0000CF80                            ; Play Quartz Quadrant past music (sound test)
0000CF80                            ; -------------------------------------------------------------------------------
0000CF80                            
0000CF80                            SPCmd_TestR5BMus:
0000CF80 41FA ED42                  	lea	File_R5PCM(pc),a0		; Load PCM driver
0000CF84 6100 0000                  	bsr.w	LoadPCMDriver
0000CF88 13FC 0081 0004 0022        	move.b	#PCMM_PAST,PCMDrv_Queue		; Queue music ID
0000CF90 6000 0000                  	bra.w	SPCmdFinish
0000CF94                            
0000CF94                            ; -------------------------------------------------------------------------------
0000CF94                            ; Play Wacky Workbench past music (sound test)
0000CF94                            ; -------------------------------------------------------------------------------
0000CF94                            
0000CF94                            SPCmd_TestR6BMus:
0000CF94 41FA ED3D                  	lea	File_R6PCM(pc),a0		; Load PCM driver
0000CF98 6100 0000                  	bsr.w	LoadPCMDriver
0000CF9C 13FC 0081 0004 0022        	move.b	#PCMM_PAST,PCMDrv_Queue		; Queue music ID
0000CFA4 6000 0000                  	bra.w	SPCmdFinish
0000CFA8                            
0000CFA8                            ; -------------------------------------------------------------------------------
0000CFA8                            ; Play Stardust Speedway past music (sound test)
0000CFA8                            ; -------------------------------------------------------------------------------
0000CFA8                            
0000CFA8                            SPCmd_TestR7BMus:
0000CFA8 41FA ED38                  	lea	File_R7PCM(pc),a0		; Load PCM driver
0000CFAC 6100 0000                  	bsr.w	LoadPCMDriver
0000CFB0 13FC 0081 0004 0022        	move.b	#PCMM_PAST,PCMDrv_Queue		; Queue music ID
0000CFB8 6000 0000                  	bra.w	SPCmdFinish
0000CFBC                            
0000CFBC                            ; -------------------------------------------------------------------------------
0000CFBC                            ; Play Metallic Madness past music (sound test)
0000CFBC                            ; -------------------------------------------------------------------------------
0000CFBC                            
0000CFBC                            SPCmd_TestR8BMus:
0000CFBC 41FA ED33                  	lea	File_R8PCM(pc),a0		; Load PCM driver
0000CFC0 6100 0000                  	bsr.w	LoadPCMDriver
0000CFC4 13FC 0081 0004 0022        	move.b	#PCMM_PAST,PCMDrv_Queue		; Queue music ID
0000CFCC 6000 0000                  	bra.w	SPCmdFinish
0000CFD0                            
0000CFD0                            ; -------------------------------------------------------------------------------
0000CFD0                            ; Load PCM driver for sound test
0000CFD0                            ; -------------------------------------------------------------------------------
0000CFD0                            ; PARAMETERS:
0000CFD0                            ;	a0.l - Pointer to file name
0000CFD0                            ; -------------------------------------------------------------------------------
0000CFD0                            
0000CFD0                            LoadPCMDriver:
0000CFD0 08B8 0003 8033             	bclr	#3,GA_INT_MASK+1.w		; Disable timer interrupt
0000CFD6                            
0000CFD6 2038 7000                  	move.l	curPCMDriver.w,d0		; Is this driver already loaded?
0000CFDA 21C8 7000                  	move.l	a0,curPCMDriver.w
0000CFDE B088                       	cmp.l	a0,d0
0000CFE0 6700                       	beq.s	.End				; If so, branch
0000CFE2 43F9 0004 0000             	lea	PCMDriver,a1			; If not, load it
0000CFE8 4EB8 7800                  	jsr	LoadFile.w
0000CFEC                            
0000CFEC                            .End:
0000CFEC 08F8 0003 8033             	bset	#3,GA_INT_MASK+1.w		; Enable timer interrupt
0000CFF2 4E75                       	rts
0000CFF4                            
0000CFF4                            ; -------------------------------------------------------------------------------
0000CFF4                            ; Null level 1 interrupt
0000CFF4                            ; -------------------------------------------------------------------------------
0000CFF4                            
0000CFF4                            IRQ1Null:
0000CFF4 4E73                       	rte
0000CFF6                            
0000CFF6                            ; -------------------------------------------------------------------------------
0000CFF6                            ; Run PCM driver (timer interrupt)
0000CFF6                            ; -------------------------------------------------------------------------------
0000CFF6                            
0000CFF6                            RunPCMDriver:
0000CFF6 0878 0000 7005             	bchg	#0,pcmDrvFlags.w		; Should we run the driver on this interrupt?
0000CFFC 6700                       	beq.s	.End				; If not, branch
0000CFFE                            
0000CFFE 48E7 FFFE                  	movem.l	d0-a6,-(sp)			; Run the driver
0000D002 4EB9 0004 0010             	jsr	PCMDrv_Run
0000D008 4CDF 7FFF                  	movem.l	(sp)+,d0-a6
0000D00C                            
0000D00C                            .End:
0000D00C 4E73                       	rte
0000D00E                            
0000D00E                            ; -------------------------------------------------------------------------------
0000D00E                            ; Give Word RAM access to the Main CPU (and finish off command)
0000D00E                            ; -------------------------------------------------------------------------------
0000D00E                            
0000D00E                            GiveWordRAMAccess:
0000D00E 08F8 0000 8003             	bset	#0,GA_MEM_MODE+1.w		; Give Word RAM access to Main CPU
0000D014 0838 0000 8003             	btst	#0,GA_MEM_MODE+1.w		; Has it been given?
0000D01A 67F2                       	beq.s	GiveWordRAMAccess		; If not, wait
0000D01C                            
0000D01C                            ; -------------------------------------------------------------------------------
0000D01C                            ; Finish off command
0000D01C                            ; -------------------------------------------------------------------------------
0000D01C                            
0000D01C                            SPCmdFinish:
0000D01C 31F8 8010 8020             	move.w	GA_CMD_0.w,GA_STAT_0.w		; Acknowledge command
0000D022                            
0000D022                            .WaitMain:
0000D022 3038 8010                  	move.w	GA_CMD_0.w,d0			; Is the Main CPU ready?
0000D026 66FA                       	bne.s	.WaitMain			; If not, wait
0000D028 3038 8010                  	move.w	GA_CMD_0.w,d0
0000D02C 66F4                       	bne.s	.WaitMain			; If not, wait
0000D02E                            
0000D02E 31FC 0000 8020             	move.w	#0,GA_STAT_0.w			; Mark as ready for another command
0000D034 4E75                       	rts
0000D036                            
0000D036                            ; -------------------------------------------------------------------------------
0000D036                            ; Wait for Word RAM access
0000D036                            ; -------------------------------------------------------------------------------
0000D036                            
0000D036                            WaitWordRAMAccess:
0000D036 0838 0001 8003             	btst	#1,GA_MEM_MODE+1.w		; Do we have Word RAM access?
0000D03C 67F8                       	beq.s	WaitWordRAMAccess		; If not, wait
0000D03E 4E75                       	rts
0000D040                            
0000D040                            ; -------------------------------------------------------------------------------
0000D040                            ; Music IDs
0000D040                            ; -------------------------------------------------------------------------------
0000D040                            
0000D040                            MusID_ProtoWarp:
0000D040 0002                       	dc.w	CDDA_WARP			; Prototype warp
0000D042                            MusID_R1A:
0000D042 0003                       	dc.w	CDDA_R1A			; Palmtree Panic present
0000D044                            MusID_R1C:
0000D044 0004                       	dc.w	CDDA_R1C			; Palmtree Panic good future
0000D046                            MusID_R1D:
0000D046 0005                       	dc.w	CDDA_R1D			; Palmtree Panic bad future
0000D048                            MusID_R3A:
0000D048 0006                       	dc.w	CDDA_R3A			; Collision Chaos present
0000D04A                            MusID_R3C:
0000D04A 0007                       	dc.w	CDDA_R3C			; Collision Chaos good future
0000D04C                            MusID_R3D:
0000D04C 0008                       	dc.w	CDDA_R3D			; Collision Chaos bad future
0000D04E                            MusID_R4A:
0000D04E 0009                       	dc.w	CDDA_R4A			; Tidal Tempest present
0000D050                            MusID_R4C:
0000D050 000A                       	dc.w	CDDA_R4C			; Tidal Tempest good future
0000D052                            MusID_R4D:
0000D052 000B                       	dc.w	CDDA_R4D			; Tidal Tempest bad future
0000D054                            MusID_R5A:
0000D054 000C                       	dc.w	CDDA_R5A			; Quartz Quadrant present
0000D056                            MusID_R5C:
0000D056 000D                       	dc.w	CDDA_R5C			; Quartz Quadrant good future
0000D058                            MusID_R5D:
0000D058 000E                       	dc.w	CDDA_R5D			; Quartz Quadrant bad future
0000D05A                            MusID_R6A:
0000D05A 000F                       	dc.w	CDDA_R6A			; Wacky Workbench present
0000D05C                            MusID_R6C:
0000D05C 0010                       	dc.w	CDDA_R6C			; Wacky Workbench good future
0000D05E                            MusID_R6D:
0000D05E 0011                       	dc.w	CDDA_R6D			; Wacky Workbench bad future
0000D060                            MusID_R7A:
0000D060 0012                       	dc.w	CDDA_R7A			; Stardust Speedway present
0000D062                            MusID_R7C:
0000D062 0013                       	dc.w	CDDA_R7C			; Stardust Speedway good future
0000D064                            MusID_R7D:
0000D064 0014                       	dc.w	CDDA_R7D			; Stardust Speedway bad future
0000D066                            MusID_R8A:
0000D066 0015                       	dc.w	CDDA_R8A			; Metallic Madness present
0000D068                            MusID_R8C:
0000D068 0016                       	dc.w	CDDA_R8C			; Metallic Madness good future
0000D06A                            MusID_R8D:
0000D06A 0017                       	dc.w	CDDA_R8D			; Metallic Madness bad future
0000D06C                            MusID_Boss:
0000D06C 0018                       	dc.w	CDDA_BOSS			; Boss
0000D06E                            MusID_Final:
0000D06E 0019                       	dc.w	CDDA_FINAL			; Final boss
0000D070                            MusID_Title:
0000D070 001A                       	dc.w	CDDA_TITLE			; Title screen
0000D072                            MusID_TimeAttack:
0000D072 001B                       	dc.w	CDDA_TMATK			; Time attack menu
0000D074                            MusID_LevelEnd:
0000D074 001C                       	dc.w	CDDA_LVLEND			; Level end
0000D076                            MusID_Shoes:
0000D076 001D                       	dc.w	CDDA_SHOES			; Speed shoes
0000D078                            MusID_Invinc:
0000D078 001E                       	dc.w	CDDA_INVINC			; Invincibility
0000D07A                            MusID_GameOver:
0000D07A 001F                       	dc.w	CDDA_GAMEOVER			; Game over
0000D07C                            MusID_Special:
0000D07C 0020                       	dc.w	CDDA_SPECIAL			; Special stage
0000D07E                            MusID_DAGarden:
0000D07E 0021                       	dc.w	CDDA_DAGARDEN			; D.A. Garden
0000D080                            MusID_Intro:
0000D080 0022                       	dc.w	CDDA_INTRO			; Opening
0000D082                            MusID_Ending:
0000D082 0023                       	dc.w	CDDA_ENDING			; Ending
0000D084                            
0000D084                            ; -------------------------------------------------------------------------------
0000D084                            ; Backup RAM data
0000D084                            ; -------------------------------------------------------------------------------
0000D084                            
0000D084                            BuRAMScratch:
0000D084                            	dcb.b	$640, 0				; Scratch RAM
0000D6C4                            
0000D6C4                            BuRAMStrings:	
0000D6C4 0000 0000 0000 0000 0000+  	dcb.b	$C, 0				; Display strings
0000D6D0                            
0000D6D0                            ; -------------------------------------------------------------------------------
0000D6D0                            
0000D6D0                            	align	$FC00
0000FC00                            
0000FC00                            ; -------------------------------------------------------------------------------
